Archive member included because of file (symbol)

/storage/apps/eclipse-avr/workspace/ArduinoCore-1.0/Mega2560/libArduinoCore-1.0.a(HardwareSerial.o)
                              ./src/main.o (_ZN14HardwareSerial9availableEv)
/storage/apps/eclipse-avr/workspace/ArduinoCore-1.0/Mega2560/libArduinoCore-1.0.a(IPAddress.o)
                              ./arduinolib/Ethernet/Dhcp.o (_ZTV9IPAddress)
/storage/apps/eclipse-avr/workspace/ArduinoCore-1.0/Mega2560/libArduinoCore-1.0.a(Print.o)
                              ./arduinolib/Wire/Wire.o (_ZN5Print5writeEPKhj)
/storage/apps/eclipse-avr/workspace/ArduinoCore-1.0/Mega2560/libArduinoCore-1.0.a(WMath.o)
                              ./arduinolib/Ethernet/Dhcp.o (_Z6randomll)
/storage/apps/eclipse-avr/workspace/ArduinoCore-1.0/Mega2560/libArduinoCore-1.0.a(WString.o)
                              ./src/main.o (_ZN6StringD2Ev)
/storage/apps/eclipse-avr/workspace/ArduinoCore-1.0/Mega2560/libArduinoCore-1.0.a(new.o)
                              ./arduinolib/Wire/Wire.o (__cxa_pure_virtual)
/storage/apps/eclipse-avr/workspace/ArduinoCore-1.0/Mega2560/libArduinoCore-1.0.a(wiring.o)
                              ./src/main.o (millis)
/storage/apps/eclipse-avr/workspace/ArduinoCore-1.0/Mega2560/libArduinoCore-1.0.a(wiring_analog.o)
                              ./src/main.o (analogRead)
/storage/apps/eclipse-avr/workspace/ArduinoCore-1.0/Mega2560/libArduinoCore-1.0.a(wiring_digital.o)
                              ./src/main.o (pinMode)
/usr/lib/gcc/avr/4.5.3/avr6/libgcc.a(_mulsi3.o)
                              ./lib/Chronodot.o (__mulsi3)
/usr/lib/gcc/avr/4.5.3/avr6/libgcc.a(_udivmodqi4.o)
                              ./lib/Chronodot.o (__udivmodqi4)
/usr/lib/gcc/avr/4.5.3/avr6/libgcc.a(_udivmodhi4.o)
                              ./lib/Chronodot.o (__udivmodhi4)
/usr/lib/gcc/avr/4.5.3/avr6/libgcc.a(_divmodhi4.o)
                              /storage/apps/eclipse-avr/workspace/ArduinoCore-1.0/Mega2560/libArduinoCore-1.0.a(HardwareSerial.o) (__divmodhi4)
/usr/lib/gcc/avr/4.5.3/avr6/libgcc.a(_udivmodsi4.o)
                              ./lib/Chronodot.o (__udivmodsi4)
/usr/lib/gcc/avr/4.5.3/avr6/libgcc.a(_divmodsi4.o)
                              /storage/apps/eclipse-avr/workspace/ArduinoCore-1.0/Mega2560/libArduinoCore-1.0.a(WMath.o) (__divmodsi4)
/usr/lib/gcc/avr/4.5.3/avr6/libgcc.a(_exit.o)
                              /usr/lib/gcc/avr/4.5.3/../../../avr/lib/avr6/crtm2560.o (exit)
/usr/lib/gcc/avr/4.5.3/avr6/libgcc.a(_copy_data.o)
                              ./src/Config.o (__do_copy_data)
/usr/lib/gcc/avr/4.5.3/avr6/libgcc.a(_clear_bss.o)
                              ./src/Config.o (__do_clear_bss)
/usr/lib/gcc/avr/4.5.3/avr6/libgcc.a(_ctors.o)
                              ./src/Config.o (__do_global_ctors)
/usr/lib/gcc/avr/4.5.3/avr6/libgcc.a(_dtors.o)
                              ./src/main.o (__do_global_dtors)
/usr/lib/gcc/avr/4.5.3/avr6/libgcc.a(_fixunssfsi.o)
                              /storage/apps/eclipse-avr/workspace/ArduinoCore-1.0/Mega2560/libArduinoCore-1.0.a(Print.o) (__fixunssfsi)
/usr/lib/gcc/avr/4.5.3/avr6/libgcc.a(_addsub_sf.o)
                              ./src/main.o (__addsf3)
/usr/lib/gcc/avr/4.5.3/avr6/libgcc.a(_mul_sf.o)
                              ./lib/Chronodot.o (__mulsf3)
/usr/lib/gcc/avr/4.5.3/avr6/libgcc.a(_div_sf.o)
                              ./lib/Chronodot.o (__divsf3)
/usr/lib/gcc/avr/4.5.3/avr6/libgcc.a(_ge_sf.o)
                              /usr/lib/gcc/avr/4.5.3/avr6/libgcc.a(_fixunssfsi.o) (__gesf2)
/usr/lib/gcc/avr/4.5.3/avr6/libgcc.a(_lt_sf.o)
                              /storage/apps/eclipse-avr/workspace/ArduinoCore-1.0/Mega2560/libArduinoCore-1.0.a(Print.o) (__ltsf2)
/usr/lib/gcc/avr/4.5.3/avr6/libgcc.a(_si_to_sf.o)
                              ./lib/Chronodot.o (__floatsisf)
/usr/lib/gcc/avr/4.5.3/avr6/libgcc.a(_sf_to_si.o)
                              ./lib/Chronodot.o (__fixsfsi)
/usr/lib/gcc/avr/4.5.3/avr6/libgcc.a(_thenan_sf.o)
                              /usr/lib/gcc/avr/4.5.3/avr6/libgcc.a(_addsub_sf.o) (__thenan_sf)
/usr/lib/gcc/avr/4.5.3/avr6/libgcc.a(_usi_to_sf.o)
                              ./lib/DallasTemperature.o (__floatunsisf)
/usr/lib/gcc/avr/4.5.3/avr6/libgcc.a(_prologue.o)
                              /usr/lib/gcc/avr/4.5.3/avr6/libgcc.a(_addsub_sf.o) (__prologue_saves__)
/usr/lib/gcc/avr/4.5.3/avr6/libgcc.a(_epilogue.o)
                              /usr/lib/gcc/avr/4.5.3/avr6/libgcc.a(_addsub_sf.o) (__epilogue_restores__)
/usr/lib/gcc/avr/4.5.3/avr6/libgcc.a(_tablejump_elpm.o)
                              /usr/lib/gcc/avr/4.5.3/avr6/libgcc.a(_ctors.o) (__tablejump_elpm__)
/usr/lib/gcc/avr/4.5.3/avr6/libgcc.a(_clzsi2.o)
                              /usr/lib/gcc/avr/4.5.3/avr6/libgcc.a(_si_to_sf.o) (__clzsi2)
/usr/lib/gcc/avr/4.5.3/avr6/libgcc.a(_pack_sf.o)
                              /usr/lib/gcc/avr/4.5.3/avr6/libgcc.a(_addsub_sf.o) (__pack_f)
/usr/lib/gcc/avr/4.5.3/avr6/libgcc.a(_unpack_sf.o)
                              /usr/lib/gcc/avr/4.5.3/avr6/libgcc.a(_addsub_sf.o) (__unpack_f)
/usr/lib/gcc/avr/4.5.3/avr6/libgcc.a(_fpcmp_parts_sf.o)
                              /usr/lib/gcc/avr/4.5.3/avr6/libgcc.a(_ge_sf.o) (__fpcmp_parts_f)
/usr/lib/gcc/avr/4.5.3/avr6/libgcc.a(_clz.o)
                              /usr/lib/gcc/avr/4.5.3/avr6/libgcc.a(_clzsi2.o) (__clz_tab)
/usr/lib/gcc/avr/4.5.3/../../../avr/lib/avr6/libc.a(dtostrf.o)
                              ./src/main.o (dtostrf)
/usr/lib/gcc/avr/4.5.3/../../../avr/lib/avr6/libc.a(malloc.o)
                              /storage/apps/eclipse-avr/workspace/ArduinoCore-1.0/Mega2560/libArduinoCore-1.0.a(new.o) (malloc)
/usr/lib/gcc/avr/4.5.3/../../../avr/lib/avr6/libc.a(random.o)
                              /storage/apps/eclipse-avr/workspace/ArduinoCore-1.0/Mega2560/libArduinoCore-1.0.a(WMath.o) (random)
/usr/lib/gcc/avr/4.5.3/../../../avr/lib/avr6/libc.a(realloc.o)
                              /storage/apps/eclipse-avr/workspace/ArduinoCore-1.0/Mega2560/libArduinoCore-1.0.a(WString.o) (realloc)
/usr/lib/gcc/avr/4.5.3/../../../avr/lib/avr6/libc.a(atof.o)
                              ./src/main.o (atof)
/usr/lib/gcc/avr/4.5.3/../../../avr/lib/avr6/libc.a(atoi.o)
                              ./src/main.o (atoi)
/usr/lib/gcc/avr/4.5.3/../../../avr/lib/avr6/libc.a(atol.o)
                              /storage/apps/eclipse-avr/workspace/ArduinoCore-1.0/Mega2560/libArduinoCore-1.0.a(WString.o) (atol)
/usr/lib/gcc/avr/4.5.3/../../../avr/lib/avr6/libc.a(isspace.o)
                              /storage/apps/eclipse-avr/workspace/ArduinoCore-1.0/Mega2560/libArduinoCore-1.0.a(WString.o) (isspace)
/usr/lib/gcc/avr/4.5.3/../../../avr/lib/avr6/libc.a(tolower.o)
                              /storage/apps/eclipse-avr/workspace/ArduinoCore-1.0/Mega2560/libArduinoCore-1.0.a(WString.o) (tolower)
/usr/lib/gcc/avr/4.5.3/../../../avr/lib/avr6/libc.a(toupper.o)
                              /storage/apps/eclipse-avr/workspace/ArduinoCore-1.0/Mega2560/libArduinoCore-1.0.a(WString.o) (toupper)
/usr/lib/gcc/avr/4.5.3/../../../avr/lib/avr6/libc.a(strtok.o)
                              ./src/main.o (strtok)
/usr/lib/gcc/avr/4.5.3/../../../avr/lib/avr6/libc.a(memcmp.o)
                              ./arduinolib/Ethernet/Dhcp.o (memcmp)
/usr/lib/gcc/avr/4.5.3/../../../avr/lib/avr6/libc.a(memcpy.o)
                              ./src/main.o (memcpy)
/usr/lib/gcc/avr/4.5.3/../../../avr/lib/avr6/libc.a(memmove.o)
                              /storage/apps/eclipse-avr/workspace/ArduinoCore-1.0/Mega2560/libArduinoCore-1.0.a(WString.o) (memmove)
/usr/lib/gcc/avr/4.5.3/../../../avr/lib/avr6/libc.a(memset.o)
                              ./arduinolib/Ethernet/Dhcp.o (memset)
/usr/lib/gcc/avr/4.5.3/../../../avr/lib/avr6/libc.a(strchr.o)
                              /storage/apps/eclipse-avr/workspace/ArduinoCore-1.0/Mega2560/libArduinoCore-1.0.a(WString.o) (strchr)
/usr/lib/gcc/avr/4.5.3/../../../avr/lib/avr6/libc.a(strcmp.o)
                              /storage/apps/eclipse-avr/workspace/ArduinoCore-1.0/Mega2560/libArduinoCore-1.0.a(WString.o) (strcmp)
/usr/lib/gcc/avr/4.5.3/../../../avr/lib/avr6/libc.a(strcpy.o)
                              /storage/apps/eclipse-avr/workspace/ArduinoCore-1.0/Mega2560/libArduinoCore-1.0.a(WString.o) (strcpy)
/usr/lib/gcc/avr/4.5.3/../../../avr/lib/avr6/libc.a(strncmp.o)
                              ./src/main.o (strncmp)
/usr/lib/gcc/avr/4.5.3/../../../avr/lib/avr6/libc.a(strncpy.o)
                              /storage/apps/eclipse-avr/workspace/ArduinoCore-1.0/Mega2560/libArduinoCore-1.0.a(WString.o) (strncpy)
/usr/lib/gcc/avr/4.5.3/../../../avr/lib/avr6/libc.a(strrchr.o)
                              /storage/apps/eclipse-avr/workspace/ArduinoCore-1.0/Mega2560/libArduinoCore-1.0.a(WString.o) (strrchr)
/usr/lib/gcc/avr/4.5.3/../../../avr/lib/avr6/libc.a(strstr.o)
                              /storage/apps/eclipse-avr/workspace/ArduinoCore-1.0/Mega2560/libArduinoCore-1.0.a(WString.o) (strstr)
/usr/lib/gcc/avr/4.5.3/../../../avr/lib/avr6/libc.a(strtok_r.o)
                              /usr/lib/gcc/avr/4.5.3/../../../avr/lib/avr6/libc.a(strtok.o) (strtok_r)
/usr/lib/gcc/avr/4.5.3/../../../avr/lib/avr6/libc.a(itoa.o)
                              /storage/apps/eclipse-avr/workspace/ArduinoCore-1.0/Mega2560/libArduinoCore-1.0.a(WString.o) (itoa)
/usr/lib/gcc/avr/4.5.3/../../../avr/lib/avr6/libc.a(ltoa.o)
                              /storage/apps/eclipse-avr/workspace/ArduinoCore-1.0/Mega2560/libArduinoCore-1.0.a(WString.o) (ltoa)
/usr/lib/gcc/avr/4.5.3/../../../avr/lib/avr6/libc.a(mulsi10.o)
                              /usr/lib/gcc/avr/4.5.3/../../../avr/lib/avr6/libc.a(atol.o) (__mulsi_const_10)
/usr/lib/gcc/avr/4.5.3/../../../avr/lib/avr6/libc.a(mul10.o)
                              /usr/lib/gcc/avr/4.5.3/../../../avr/lib/avr6/libc.a(atoi.o) (__mulhi_const_10)
/usr/lib/gcc/avr/4.5.3/../../../avr/lib/avr6/libc.a(ultoa.o)
                              /storage/apps/eclipse-avr/workspace/ArduinoCore-1.0/Mega2560/libArduinoCore-1.0.a(WString.o) (ultoa)
/usr/lib/gcc/avr/4.5.3/../../../avr/lib/avr6/libc.a(utoa.o)
                              /storage/apps/eclipse-avr/workspace/ArduinoCore-1.0/Mega2560/libArduinoCore-1.0.a(WString.o) (utoa)
/usr/lib/gcc/avr/4.5.3/../../../avr/lib/avr6/libc.a(sprintf.o)
                              ./src/main.o (sprintf)
/usr/lib/gcc/avr/4.5.3/../../../avr/lib/avr6/libc.a(vfprintf_std.o)
                              /usr/lib/gcc/avr/4.5.3/../../../avr/lib/avr6/libc.a(sprintf.o) (vfprintf)
/usr/lib/gcc/avr/4.5.3/../../../avr/lib/avr6/libc.a(eerd_byte_atmega2560.o)
                              ./arduinolib/EEPROM/EEPROM.o (__eerd_byte_m2560)
/usr/lib/gcc/avr/4.5.3/../../../avr/lib/avr6/libc.a(eewr_byte_atmega2560.o)
                              ./arduinolib/EEPROM/EEPROM.o (__eewr_byte_m2560)
/usr/lib/gcc/avr/4.5.3/../../../avr/lib/avr6/libc.a(dtoa_prf.o)
                              /usr/lib/gcc/avr/4.5.3/../../../avr/lib/avr6/libc.a(dtostrf.o) (dtoa_prf)
/usr/lib/gcc/avr/4.5.3/../../../avr/lib/avr6/libc.a(strtod.o)
                              /usr/lib/gcc/avr/4.5.3/../../../avr/lib/avr6/libc.a(atof.o) (strtod)
/usr/lib/gcc/avr/4.5.3/../../../avr/lib/avr6/libc.a(ftoa_engine.o)
                              /usr/lib/gcc/avr/4.5.3/../../../avr/lib/avr6/libc.a(dtoa_prf.o) (__ftoa_engine)
/usr/lib/gcc/avr/4.5.3/../../../avr/lib/avr6/libc.a(cty_isfalse.o)
                              /usr/lib/gcc/avr/4.5.3/../../../avr/lib/avr6/libc.a(isspace.o) (__ctype_isfalse)
/usr/lib/gcc/avr/4.5.3/../../../avr/lib/avr6/libc.a(strncasecmp_P.o)
                              /usr/lib/gcc/avr/4.5.3/../../../avr/lib/avr6/libc.a(strtod.o) (strncasecmp_P)
/usr/lib/gcc/avr/4.5.3/../../../avr/lib/avr6/libc.a(strnlen_P.o)
                              /usr/lib/gcc/avr/4.5.3/../../../avr/lib/avr6/libc.a(vfprintf_std.o) (strnlen_P)
/usr/lib/gcc/avr/4.5.3/../../../avr/lib/avr6/libc.a(strnlen.o)
                              /usr/lib/gcc/avr/4.5.3/../../../avr/lib/avr6/libc.a(vfprintf_std.o) (strnlen)
/usr/lib/gcc/avr/4.5.3/../../../avr/lib/avr6/libc.a(strrev.o)
                              /usr/lib/gcc/avr/4.5.3/../../../avr/lib/avr6/libc.a(itoa.o) (strrev)
/usr/lib/gcc/avr/4.5.3/../../../avr/lib/avr6/libc.a(fputc.o)
                              /usr/lib/gcc/avr/4.5.3/../../../avr/lib/avr6/libc.a(vfprintf_std.o) (fputc)
/usr/lib/gcc/avr/4.5.3/../../../avr/lib/avr6/libc.a(ultoa_invert.o)
                              /usr/lib/gcc/avr/4.5.3/../../../avr/lib/avr6/libc.a(vfprintf_std.o) (__ultoa_invert)
/usr/lib/gcc/avr/4.5.3/../../../avr/lib/avr6/libc.a(cmpsf2.o)
                              /usr/lib/gcc/avr/4.5.3/../../../avr/lib/avr6/libc.a(strtod.o) (__eqsf2)
/usr/lib/gcc/avr/4.5.3/../../../avr/lib/avr6/libc.a(fp_cmp.o)
                              /usr/lib/gcc/avr/4.5.3/../../../avr/lib/avr6/libc.a(cmpsf2.o) (__fp_cmp)
/usr/lib/gcc/avr/4.5.3/../../../avr/lib/avr6/libc.a(errno.o)
                              /usr/lib/gcc/avr/4.5.3/../../../avr/lib/avr6/libc.a(strtod.o) (errno)

Allocating common symbols
Common symbol       size              file

errno               0x2               /usr/lib/gcc/avr/4.5.3/../../../avr/lib/avr6/libc.a(errno.o)
__brkval            0x2               /usr/lib/gcc/avr/4.5.3/../../../avr/lib/avr6/libc.a(malloc.o)
__flp               0x2               /usr/lib/gcc/avr/4.5.3/../../../avr/lib/avr6/libc.a(malloc.o)

Memory Configuration

Name             Origin             Length             Attributes
text             0x0000000000000000 0x0000000000100000 xr
data             0x0000000000800200 0x000000000000fe00 rw !x
eeprom           0x0000000000810000 0x0000000000010000 rw !x
fuse             0x0000000000820000 0x0000000000000400 rw !x
lock             0x0000000000830000 0x0000000000000400 rw !x
signature        0x0000000000840000 0x0000000000000400 rw !x
*default*        0x0000000000000000 0xffffffffffffffff

Linker script and memory map

Address of section .data set to 0x800200
LOAD /usr/lib/gcc/avr/4.5.3/../../../avr/lib/avr6/crtm2560.o
LOAD ./src/Config.o
LOAD ./src/Gateway.o
LOAD ./src/IpAddress.o
LOAD ./src/Netmask.o
LOAD ./src/main.o
LOAD ./lib/Chronodot.o
LOAD ./lib/DallasTemperature.o
LOAD ./lib/OneWire.o
LOAD ./arduinolib/Wire/utility/twi.o
LOAD ./arduinolib/Wire/Wire.o
LOAD ./arduinolib/SPI/SPI.o
LOAD ./arduinolib/Ethernet/utility/socket.o
LOAD ./arduinolib/Ethernet/utility/w5100.o
LOAD ./arduinolib/Ethernet/Dhcp.o
LOAD ./arduinolib/Ethernet/Dns.o
LOAD ./arduinolib/Ethernet/Ethernet.o
LOAD ./arduinolib/Ethernet/EthernetClient.o
LOAD ./arduinolib/Ethernet/EthernetServer.o
LOAD ./arduinolib/Ethernet/EthernetUdp.o
LOAD ./arduinolib/EEPROM/EEPROM.o
LOAD /storage/apps/eclipse-avr/workspace/ArduinoCore-1.0/Mega2560/libArduinoCore-1.0.a
LOAD /usr/lib/gcc/avr/4.5.3/avr6/libgcc.a
LOAD /usr/lib/gcc/avr/4.5.3/../../../avr/lib/avr6/libm.a
LOAD /usr/lib/gcc/avr/4.5.3/avr6/libgcc.a
LOAD /usr/lib/gcc/avr/4.5.3/../../../avr/lib/avr6/libc.a
LOAD /usr/lib/gcc/avr/4.5.3/avr6/libgcc.a

.hash
 *(.hash)

.dynsym
 *(.dynsym)

.dynstr
 *(.dynstr)

.gnu.version
 *(.gnu.version)

.gnu.version_d
 *(.gnu.version_d)

.gnu.version_r
 *(.gnu.version_r)

.rel.init
 *(.rel.init)

.rela.init
 *(.rela.init)

.rel.text
 *(.rel.text)
 *(.rel.text.*)
 *(.rel.gnu.linkonce.t*)

.rela.text
 *(.rela.text)
 *(.rela.text.*)
 *(.rela.gnu.linkonce.t*)

.rel.fini
 *(.rel.fini)

.rela.fini
 *(.rela.fini)

.rel.rodata
 *(.rel.rodata)
 *(.rel.rodata.*)
 *(.rel.gnu.linkonce.r*)

.rela.rodata
 *(.rela.rodata)
 *(.rela.rodata.*)
 *(.rela.gnu.linkonce.r*)

.rel.data
 *(.rel.data)
 *(.rel.data.*)
 *(.rel.gnu.linkonce.d*)

.rela.data
 *(.rela.data)
 *(.rela.data.*)
 *(.rela.gnu.linkonce.d*)

.rel.ctors
 *(.rel.ctors)

.rela.ctors
 *(.rela.ctors)

.rel.dtors
 *(.rel.dtors)

.rela.dtors
 *(.rela.dtors)

.rel.got
 *(.rel.got)

.rela.got
 *(.rela.got)

.rel.bss
 *(.rel.bss)

.rela.bss
 *(.rela.bss)

.rel.plt
 *(.rel.plt)

.rela.plt
 *(.rela.plt)

.text           0x0000000000000000    0x111aa
 *(.vectors)
 .vectors       0x0000000000000000       0xe4 /usr/lib/gcc/avr/4.5.3/../../../avr/lib/avr6/crtm2560.o
                0x0000000000000000                __vectors
                0x0000000000000000                __vector_default
 *(.vectors)
 *(.progmem.gcc*)
 .progmem.gcc_sw_table
                0x00000000000000e4      0x1f2 ./arduinolib/Wire/utility/twi.o
 *(.progmem*)
 .progmem.data  0x00000000000002d6        0xc ./lib/Chronodot.o
 .progmem.data  0x00000000000002e2      0x100 ./lib/OneWire.o
 .progmem.data  0x00000000000003e2      0x120 /storage/apps/eclipse-avr/workspace/ArduinoCore-1.0/Mega2560/libArduinoCore-1.0.a(wiring_digital.o)
                0x00000000000003e2                port_to_mode_PGM
                0x00000000000003fc                port_to_output_PGM
                0x0000000000000416                port_to_input_PGM
                0x0000000000000430                digital_pin_to_port_PGM
                0x0000000000000476                digital_pin_to_bit_mask_PGM
                0x00000000000004bc                digital_pin_to_timer_PGM
 .progmem.data  0x0000000000000502       0x3b /usr/lib/gcc/avr/4.5.3/../../../avr/lib/avr6/libc.a(strtod.o)
 .progmem.data  0x000000000000053d       0xfa /usr/lib/gcc/avr/4.5.3/../../../avr/lib/avr6/libc.a(ftoa_engine.o)
                0x0000000000000638                . = ALIGN (0x2)
 *fill*         0x0000000000000637        0x1 00
                0x0000000000000638                __trampolines_start = .
 *(.trampolines)
 .trampolines   0x0000000000000638        0x0 linker stubs
 *(.trampolines*)
                0x0000000000000638                __trampolines_end = .
 *(.jumptables)
 *(.jumptables*)
 *(.lowtext)
 *(.lowtext*)
                0x0000000000000638                __ctors_start = .
 *(.ctors)
 .ctors         0x0000000000000638        0x2 ./src/Config.o
 .ctors         0x000000000000063a        0x2 ./src/main.o
 .ctors         0x000000000000063c        0x2 ./arduinolib/Wire/Wire.o
 .ctors         0x000000000000063e        0x2 ./arduinolib/Ethernet/Dhcp.o
 .ctors         0x0000000000000640        0x2 ./arduinolib/Ethernet/Dns.o
 .ctors         0x0000000000000642        0x2 ./arduinolib/Ethernet/Ethernet.o
 .ctors         0x0000000000000644        0x2 ./arduinolib/Ethernet/EthernetClient.o
 .ctors         0x0000000000000646        0x2 ./arduinolib/Ethernet/EthernetServer.o
 .ctors         0x0000000000000648        0x2 ./arduinolib/Ethernet/EthernetUdp.o
 .ctors         0x000000000000064a        0x2 /storage/apps/eclipse-avr/workspace/ArduinoCore-1.0/Mega2560/libArduinoCore-1.0.a(HardwareSerial.o)
 .ctors         0x000000000000064c        0x2 /storage/apps/eclipse-avr/workspace/ArduinoCore-1.0/Mega2560/libArduinoCore-1.0.a(IPAddress.o)
                0x000000000000064e                __ctors_end = .
                0x000000000000064e                __dtors_start = .
 *(.dtors)
 .dtors         0x000000000000064e        0x2 ./src/main.o
                0x0000000000000650                __dtors_end = .
 SORT(*)(.ctors)
 SORT(*)(.dtors)
 *(.init0)
 .init0         0x0000000000000650        0x0 /usr/lib/gcc/avr/4.5.3/../../../avr/lib/avr6/crtm2560.o
                0x0000000000000650                __init
 *(.init0)
 *(.init1)
 *(.init1)
 *(.init2)
 .init2         0x0000000000000650       0x10 /usr/lib/gcc/avr/4.5.3/../../../avr/lib/avr6/crtm2560.o
 *(.init2)
 *(.init3)
 *(.init3)
 *(.init4)
 .init4         0x0000000000000660       0x1a /usr/lib/gcc/avr/4.5.3/avr6/libgcc.a(_copy_data.o)
                0x0000000000000660                __do_copy_data
 .init4         0x000000000000067a       0x10 /usr/lib/gcc/avr/4.5.3/avr6/libgcc.a(_clear_bss.o)
                0x000000000000067a                __do_clear_bss
 *(.init4)
 *(.init5)
 *(.init5)
 *(.init6)
 .init6         0x000000000000068a       0x20 /usr/lib/gcc/avr/4.5.3/avr6/libgcc.a(_ctors.o)
                0x000000000000068a                __do_global_ctors
 *(.init6)
 *(.init7)
 *(.init7)
 *(.init8)
 *(.init8)
 *(.init9)
 .init9         0x00000000000006aa        0x8 /usr/lib/gcc/avr/4.5.3/../../../avr/lib/avr6/crtm2560.o
 *(.init9)
 *(.text)
 .text          0x00000000000006b2        0x4 /usr/lib/gcc/avr/4.5.3/../../../avr/lib/avr6/crtm2560.o
                0x00000000000006b2                __vector_38
                0x00000000000006b2                __vector_22
                0x00000000000006b2                __vector_28
                0x00000000000006b2                __vector_1
                0x00000000000006b2                __vector_32
                0x00000000000006b2                __vector_34
                0x00000000000006b2                __vector_24
                0x00000000000006b2                __vector_12
                0x00000000000006b2                __vector_46
                0x00000000000006b2                __bad_interrupt
                0x00000000000006b2                __vector_6
                0x00000000000006b2                __vector_31
                0x00000000000006b2                __vector_35
                0x00000000000006b2                __vector_3
                0x00000000000006b2                __vector_30
                0x00000000000006b2                __vector_45
                0x00000000000006b2                __vector_11
                0x00000000000006b2                __vector_13
                0x00000000000006b2                __vector_17
                0x00000000000006b2                __vector_19
                0x00000000000006b2                __vector_56
                0x00000000000006b2                __vector_7
                0x00000000000006b2                __vector_49
                0x00000000000006b2                __vector_41
                0x00000000000006b2                __vector_43
                0x00000000000006b2                __vector_27
                0x00000000000006b2                __vector_5
                0x00000000000006b2                __vector_33
                0x00000000000006b2                __vector_47
                0x00000000000006b2                __vector_4
                0x00000000000006b2                __vector_44
                0x00000000000006b2                __vector_9
                0x00000000000006b2                __vector_2
                0x00000000000006b2                __vector_21
                0x00000000000006b2                __vector_15
                0x00000000000006b2                __vector_29
                0x00000000000006b2                __vector_40
                0x00000000000006b2                __vector_8
                0x00000000000006b2                __vector_48
                0x00000000000006b2                __vector_14
                0x00000000000006b2                __vector_53
                0x00000000000006b2                __vector_10
                0x00000000000006b2                __vector_50
                0x00000000000006b2                __vector_16
                0x00000000000006b2                __vector_18
                0x00000000000006b2                __vector_20
                0x00000000000006b2                __vector_42
 .text          0x00000000000006b6        0x0 ./src/Config.o
 .text          0x00000000000006b6        0x0 ./src/Gateway.o
 .text          0x00000000000006b6        0x0 ./src/IpAddress.o
 .text          0x00000000000006b6        0x0 ./src/Netmask.o
 .text          0x00000000000006b6        0x0 ./src/main.o
 .text          0x00000000000006b6        0x0 ./lib/Chronodot.o
 .text          0x00000000000006b6        0x0 ./lib/DallasTemperature.o
 .text          0x00000000000006b6        0x0 ./lib/OneWire.o
 .text          0x00000000000006b6        0x0 ./arduinolib/Wire/utility/twi.o
 .text          0x00000000000006b6        0x0 ./arduinolib/Wire/Wire.o
 .text          0x00000000000006b6        0x0 ./arduinolib/SPI/SPI.o
 .text          0x00000000000006b6        0x0 ./arduinolib/Ethernet/utility/socket.o
 .text          0x00000000000006b6        0x0 ./arduinolib/Ethernet/utility/w5100.o
 .text          0x00000000000006b6        0x0 ./arduinolib/Ethernet/Dhcp.o
 .text          0x00000000000006b6        0x0 ./arduinolib/Ethernet/Dns.o
 .text          0x00000000000006b6        0x0 ./arduinolib/Ethernet/Ethernet.o
 .text          0x00000000000006b6        0x0 ./arduinolib/Ethernet/EthernetClient.o
 .text          0x00000000000006b6        0x0 ./arduinolib/Ethernet/EthernetServer.o
 .text          0x00000000000006b6        0x0 ./arduinolib/Ethernet/EthernetUdp.o
 .text          0x00000000000006b6        0x0 ./arduinolib/EEPROM/EEPROM.o
 .text          0x00000000000006b6        0x0 /storage/apps/eclipse-avr/workspace/ArduinoCore-1.0/Mega2560/libArduinoCore-1.0.a(HardwareSerial.o)
 .text          0x00000000000006b6        0x0 /storage/apps/eclipse-avr/workspace/ArduinoCore-1.0/Mega2560/libArduinoCore-1.0.a(IPAddress.o)
 .text          0x00000000000006b6        0x0 /storage/apps/eclipse-avr/workspace/ArduinoCore-1.0/Mega2560/libArduinoCore-1.0.a(Print.o)
 .text          0x00000000000006b6        0x0 /storage/apps/eclipse-avr/workspace/ArduinoCore-1.0/Mega2560/libArduinoCore-1.0.a(WMath.o)
 .text          0x00000000000006b6        0x0 /storage/apps/eclipse-avr/workspace/ArduinoCore-1.0/Mega2560/libArduinoCore-1.0.a(WString.o)
 .text          0x00000000000006b6        0x0 /storage/apps/eclipse-avr/workspace/ArduinoCore-1.0/Mega2560/libArduinoCore-1.0.a(new.o)
 .text          0x00000000000006b6        0x0 /storage/apps/eclipse-avr/workspace/ArduinoCore-1.0/Mega2560/libArduinoCore-1.0.a(wiring.o)
 .text          0x00000000000006b6        0x0 /storage/apps/eclipse-avr/workspace/ArduinoCore-1.0/Mega2560/libArduinoCore-1.0.a(wiring_analog.o)
 .text          0x00000000000006b6        0x0 /storage/apps/eclipse-avr/workspace/ArduinoCore-1.0/Mega2560/libArduinoCore-1.0.a(wiring_digital.o)
 .text          0x00000000000006b6        0x0 /usr/lib/gcc/avr/4.5.3/avr6/libgcc.a(_mulsi3.o)
 .text          0x00000000000006b6        0x0 /usr/lib/gcc/avr/4.5.3/avr6/libgcc.a(_udivmodqi4.o)
 .text          0x00000000000006b6        0x0 /usr/lib/gcc/avr/4.5.3/avr6/libgcc.a(_udivmodhi4.o)
 .text          0x00000000000006b6        0x0 /usr/lib/gcc/avr/4.5.3/avr6/libgcc.a(_divmodhi4.o)
 .text          0x00000000000006b6        0x0 /usr/lib/gcc/avr/4.5.3/avr6/libgcc.a(_udivmodsi4.o)
 .text          0x00000000000006b6        0x0 /usr/lib/gcc/avr/4.5.3/avr6/libgcc.a(_divmodsi4.o)
 .text          0x00000000000006b6        0x0 /usr/lib/gcc/avr/4.5.3/avr6/libgcc.a(_exit.o)
 .text          0x00000000000006b6        0x0 /usr/lib/gcc/avr/4.5.3/avr6/libgcc.a(_copy_data.o)
 .text          0x00000000000006b6        0x0 /usr/lib/gcc/avr/4.5.3/avr6/libgcc.a(_clear_bss.o)
 .text          0x00000000000006b6        0x0 /usr/lib/gcc/avr/4.5.3/avr6/libgcc.a(_ctors.o)
 .text          0x00000000000006b6        0x0 /usr/lib/gcc/avr/4.5.3/avr6/libgcc.a(_dtors.o)
 .text          0x00000000000006b6       0x58 /usr/lib/gcc/avr/4.5.3/avr6/libgcc.a(_fixunssfsi.o)
                0x00000000000006b6                __fixunssfsi
 .text          0x000000000000070e      0x350 /usr/lib/gcc/avr/4.5.3/avr6/libgcc.a(_addsub_sf.o)
                0x00000000000009a2                __addsf3
                0x00000000000009fc                __subsf3
 .text          0x0000000000000a5e      0x1f4 /usr/lib/gcc/avr/4.5.3/avr6/libgcc.a(_mul_sf.o)
                0x0000000000000a5e                __mulsf3
 .text          0x0000000000000c52      0x15c /usr/lib/gcc/avr/4.5.3/avr6/libgcc.a(_div_sf.o)
                0x0000000000000c52                __divsf3
 .text          0x0000000000000dae       0x60 /usr/lib/gcc/avr/4.5.3/avr6/libgcc.a(_ge_sf.o)
                0x0000000000000dae                __gesf2
 .text          0x0000000000000e0e       0x60 /usr/lib/gcc/avr/4.5.3/avr6/libgcc.a(_lt_sf.o)
                0x0000000000000e0e                __ltsf2
 .text          0x0000000000000e6e       0xc0 /usr/lib/gcc/avr/4.5.3/avr6/libgcc.a(_si_to_sf.o)
                0x0000000000000e6e                __floatsisf
 .text          0x0000000000000f2e       0xa4 /usr/lib/gcc/avr/4.5.3/avr6/libgcc.a(_sf_to_si.o)
                0x0000000000000f2e                __fixsfsi
 .text          0x0000000000000fd2        0x0 /usr/lib/gcc/avr/4.5.3/avr6/libgcc.a(_thenan_sf.o)
 .text          0x0000000000000fd2       0xf0 /usr/lib/gcc/avr/4.5.3/avr6/libgcc.a(_usi_to_sf.o)
                0x0000000000000fd2                __floatunsisf
 .text          0x00000000000010c2        0x0 /usr/lib/gcc/avr/4.5.3/avr6/libgcc.a(_prologue.o)
 .text          0x00000000000010c2        0x0 /usr/lib/gcc/avr/4.5.3/avr6/libgcc.a(_epilogue.o)
 .text          0x00000000000010c2        0x0 /usr/lib/gcc/avr/4.5.3/avr6/libgcc.a(_tablejump_elpm.o)
 .text          0x00000000000010c2       0xb4 /usr/lib/gcc/avr/4.5.3/avr6/libgcc.a(_clzsi2.o)
                0x00000000000010c2                __clzsi2
 .text          0x0000000000001176      0x19c /usr/lib/gcc/avr/4.5.3/avr6/libgcc.a(_pack_sf.o)
                0x0000000000001176                __pack_f
 .text          0x0000000000001312       0xd2 /usr/lib/gcc/avr/4.5.3/avr6/libgcc.a(_unpack_sf.o)
                0x0000000000001312                __unpack_f
 .text          0x00000000000013e4       0xb2 /usr/lib/gcc/avr/4.5.3/avr6/libgcc.a(_fpcmp_parts_sf.o)
                0x00000000000013e4                __fpcmp_parts_f
 .text          0x0000000000001496        0x0 /usr/lib/gcc/avr/4.5.3/avr6/libgcc.a(_clz.o)
 .text          0x0000000000001496        0x0 /usr/lib/gcc/avr/4.5.3/../../../avr/lib/avr6/libc.a(dtostrf.o)
 .text          0x0000000000001496        0x0 /usr/lib/gcc/avr/4.5.3/../../../avr/lib/avr6/libc.a(malloc.o)
 .text          0x0000000000001496        0x0 /usr/lib/gcc/avr/4.5.3/../../../avr/lib/avr6/libc.a(random.o)
 .text          0x0000000000001496        0x0 /usr/lib/gcc/avr/4.5.3/../../../avr/lib/avr6/libc.a(realloc.o)
 .text          0x0000000000001496        0x0 /usr/lib/gcc/avr/4.5.3/../../../avr/lib/avr6/libc.a(atof.o)
 .text          0x0000000000001496        0x0 /usr/lib/gcc/avr/4.5.3/../../../avr/lib/avr6/libc.a(atoi.o)
 .text          0x0000000000001496        0x0 /usr/lib/gcc/avr/4.5.3/../../../avr/lib/avr6/libc.a(atol.o)
 .text          0x0000000000001496        0x0 /usr/lib/gcc/avr/4.5.3/../../../avr/lib/avr6/libc.a(isspace.o)
 .text          0x0000000000001496        0x0 /usr/lib/gcc/avr/4.5.3/../../../avr/lib/avr6/libc.a(tolower.o)
 .text          0x0000000000001496        0x0 /usr/lib/gcc/avr/4.5.3/../../../avr/lib/avr6/libc.a(toupper.o)
 .text          0x0000000000001496        0x0 /usr/lib/gcc/avr/4.5.3/../../../avr/lib/avr6/libc.a(strtok.o)
 .text          0x0000000000001496        0x0 /usr/lib/gcc/avr/4.5.3/../../../avr/lib/avr6/libc.a(memcmp.o)
 .text          0x0000000000001496        0x0 /usr/lib/gcc/avr/4.5.3/../../../avr/lib/avr6/libc.a(memcpy.o)
 .text          0x0000000000001496        0x0 /usr/lib/gcc/avr/4.5.3/../../../avr/lib/avr6/libc.a(memmove.o)
 .text          0x0000000000001496        0x0 /usr/lib/gcc/avr/4.5.3/../../../avr/lib/avr6/libc.a(memset.o)
 .text          0x0000000000001496        0x0 /usr/lib/gcc/avr/4.5.3/../../../avr/lib/avr6/libc.a(strchr.o)
 .text          0x0000000000001496        0x0 /usr/lib/gcc/avr/4.5.3/../../../avr/lib/avr6/libc.a(strcmp.o)
 .text          0x0000000000001496        0x0 /usr/lib/gcc/avr/4.5.3/../../../avr/lib/avr6/libc.a(strcpy.o)
 .text          0x0000000000001496        0x0 /usr/lib/gcc/avr/4.5.3/../../../avr/lib/avr6/libc.a(strncmp.o)
 .text          0x0000000000001496        0x0 /usr/lib/gcc/avr/4.5.3/../../../avr/lib/avr6/libc.a(strncpy.o)
 .text          0x0000000000001496        0x0 /usr/lib/gcc/avr/4.5.3/../../../avr/lib/avr6/libc.a(strrchr.o)
 .text          0x0000000000001496        0x0 /usr/lib/gcc/avr/4.5.3/../../../avr/lib/avr6/libc.a(strstr.o)
 .text          0x0000000000001496        0x0 /usr/lib/gcc/avr/4.5.3/../../../avr/lib/avr6/libc.a(strtok_r.o)
 .text          0x0000000000001496        0x0 /usr/lib/gcc/avr/4.5.3/../../../avr/lib/avr6/libc.a(itoa.o)
 .text          0x0000000000001496        0x0 /usr/lib/gcc/avr/4.5.3/../../../avr/lib/avr6/libc.a(ltoa.o)
 .text          0x0000000000001496        0x0 /usr/lib/gcc/avr/4.5.3/../../../avr/lib/avr6/libc.a(mulsi10.o)
 .text          0x0000000000001496        0x0 /usr/lib/gcc/avr/4.5.3/../../../avr/lib/avr6/libc.a(mul10.o)
 .text          0x0000000000001496        0x0 /usr/lib/gcc/avr/4.5.3/../../../avr/lib/avr6/libc.a(ultoa.o)
 .text          0x0000000000001496        0x0 /usr/lib/gcc/avr/4.5.3/../../../avr/lib/avr6/libc.a(utoa.o)
 .text          0x0000000000001496        0x0 /usr/lib/gcc/avr/4.5.3/../../../avr/lib/avr6/libc.a(sprintf.o)
 .text          0x0000000000001496        0x0 /usr/lib/gcc/avr/4.5.3/../../../avr/lib/avr6/libc.a(vfprintf_std.o)
 .text          0x0000000000001496        0x0 /usr/lib/gcc/avr/4.5.3/../../../avr/lib/avr6/libc.a(eerd_byte_atmega2560.o)
 .text          0x0000000000001496        0x0 /usr/lib/gcc/avr/4.5.3/../../../avr/lib/avr6/libc.a(eewr_byte_atmega2560.o)
 .text          0x0000000000001496        0x0 /usr/lib/gcc/avr/4.5.3/../../../avr/lib/avr6/libc.a(dtoa_prf.o)
 .text          0x0000000000001496        0x0 /usr/lib/gcc/avr/4.5.3/../../../avr/lib/avr6/libc.a(strtod.o)
 .text          0x0000000000001496        0x0 /usr/lib/gcc/avr/4.5.3/../../../avr/lib/avr6/libc.a(ftoa_engine.o)
 .text          0x0000000000001496        0x0 /usr/lib/gcc/avr/4.5.3/../../../avr/lib/avr6/libc.a(cty_isfalse.o)
 .text          0x0000000000001496        0x0 /usr/lib/gcc/avr/4.5.3/../../../avr/lib/avr6/libc.a(strncasecmp_P.o)
 .text          0x0000000000001496        0x0 /usr/lib/gcc/avr/4.5.3/../../../avr/lib/avr6/libc.a(strnlen_P.o)
 .text          0x0000000000001496        0x0 /usr/lib/gcc/avr/4.5.3/../../../avr/lib/avr6/libc.a(strnlen.o)
 .text          0x0000000000001496        0x0 /usr/lib/gcc/avr/4.5.3/../../../avr/lib/avr6/libc.a(strrev.o)
 .text          0x0000000000001496        0x0 /usr/lib/gcc/avr/4.5.3/../../../avr/lib/avr6/libc.a(fputc.o)
 .text          0x0000000000001496        0x0 /usr/lib/gcc/avr/4.5.3/../../../avr/lib/avr6/libc.a(ultoa_invert.o)
 .text          0x0000000000001496        0x0 /usr/lib/gcc/avr/4.5.3/../../../avr/lib/avr6/libc.a(cmpsf2.o)
 .text          0x0000000000001496        0x0 /usr/lib/gcc/avr/4.5.3/../../../avr/lib/avr6/libc.a(fp_cmp.o)
 .text          0x0000000000001496        0x0 /usr/lib/gcc/avr/4.5.3/../../../avr/lib/avr6/libc.a(errno.o)
                0x0000000000001496                . = ALIGN (0x2)
 *(.text.*)
 .text._ZN6ConfigC2Ev
                0x0000000000001496       0x4c ./src/Config.o
                0x0000000000001496                _ZN6ConfigC2Ev
                0x0000000000001496                _ZN6ConfigC1Ev
 .text._ZN6ConfigD2Ev
                0x00000000000014e2       0x1a ./src/Config.o
                0x00000000000014e2                _ZN6ConfigD2Ev
                0x00000000000014e2                _ZN6ConfigD1Ev
 .text._ZN6Config6getMacEv
                0x00000000000014fc       0x1e ./src/Config.o
                0x00000000000014fc                _ZN6Config6getMacEv
 .text._ZN6Config10getAddressEv
                0x000000000000151a       0x20 ./src/Config.o
                0x000000000000151a                _ZN6Config10getAddressEv
 .text._ZN6Config10getNetmaskEv
                0x000000000000153a       0x20 ./src/Config.o
                0x000000000000153a                _ZN6Config10getNetmaskEv
 .text._ZN6Config10getGatewayEv
                0x000000000000155a       0x20 ./src/Config.o
                0x000000000000155a                _ZN6Config10getGatewayEv
 .text._ZN6Config7getPortEv
                0x000000000000157a       0x22 ./src/Config.o
                0x000000000000157a                _ZN6Config7getPortEv
 .text._Z41__static_initialization_and_destruction_0ii
                0x000000000000159c       0x4c ./src/Config.o
 .text._GLOBAL__I__ZN6ConfigC2Ev
                0x00000000000015e8       0x1a ./src/Config.o
 .text._ZN7GatewayC2Ev
                0x0000000000001602      0x1bc ./src/Gateway.o
                0x0000000000001602                _ZN7GatewayC2Ev
                0x0000000000001602                _ZN7GatewayC1Ev
 .text._ZN7GatewayD2Ev
                0x00000000000017be       0x24 ./src/Gateway.o
                0x00000000000017be                _ZN7GatewayD1Ev
                0x00000000000017be                _ZN7GatewayD2Ev
 .text._ZN7Gateway3setEhhhh
                0x00000000000017e2      0x17a ./src/Gateway.o
                0x00000000000017e2                _ZN7Gateway3setEhhhh
 .text._ZN7Gateway8getBytesEv
                0x000000000000195c       0x60 ./src/Gateway.o
                0x000000000000195c                _ZN7Gateway8getBytesEv
 .text._ZN7Gateway5eraseEv
                0x00000000000019bc       0x52 ./src/Gateway.o
                0x00000000000019bc                _ZN7Gateway5eraseEv
 .text._ZN7Gateway8toStringEv
                0x0000000000001a0e       0x38 ./src/Gateway.o
                0x0000000000001a0e                _ZN7Gateway8toStringEv
 .text._ZN9IpAddressC2Ev
                0x0000000000001a46      0x1bc ./src/IpAddress.o
                0x0000000000001a46                _ZN9IpAddressC2Ev
                0x0000000000001a46                _ZN9IpAddressC1Ev
 .text._ZN9IpAddressD2Ev
                0x0000000000001c02       0x24 ./src/IpAddress.o
                0x0000000000001c02                _ZN9IpAddressD1Ev
                0x0000000000001c02                _ZN9IpAddressD2Ev
 .text._ZN9IpAddress3setEhhhh
                0x0000000000001c26      0x17a ./src/IpAddress.o
                0x0000000000001c26                _ZN9IpAddress3setEhhhh
 .text._ZN9IpAddress8getBytesEv
                0x0000000000001da0       0x60 ./src/IpAddress.o
                0x0000000000001da0                _ZN9IpAddress8getBytesEv
 .text._ZN9IpAddress5eraseEv
                0x0000000000001e00       0x52 ./src/IpAddress.o
                0x0000000000001e00                _ZN9IpAddress5eraseEv
 .text._ZN9IpAddress8toStringEv
                0x0000000000001e52       0x38 ./src/IpAddress.o
                0x0000000000001e52                _ZN9IpAddress8toStringEv
 .text._ZN7NetmaskC2Ev
                0x0000000000001e8a      0x1ba ./src/Netmask.o
                0x0000000000001e8a                _ZN7NetmaskC1Ev
                0x0000000000001e8a                _ZN7NetmaskC2Ev
 .text._ZN7NetmaskD2Ev
                0x0000000000002044       0x24 ./src/Netmask.o
                0x0000000000002044                _ZN7NetmaskD2Ev
                0x0000000000002044                _ZN7NetmaskD1Ev
 .text._ZN7Netmask3setEhhhh
                0x0000000000002068      0x17a ./src/Netmask.o
                0x0000000000002068                _ZN7Netmask3setEhhhh
 .text._ZN7Netmask8getBytesEv
                0x00000000000021e2       0x60 ./src/Netmask.o
                0x00000000000021e2                _ZN7Netmask8getBytesEv
 .text._ZN7Netmask5eraseEv
                0x0000000000002242       0x52 ./src/Netmask.o
                0x0000000000002242                _ZN7Netmask5eraseEv
 .text._ZN7Netmask8toStringEv
                0x0000000000002294       0x38 ./src/Netmask.o
                0x0000000000002294                _ZN7Netmask8toStringEv
 .text._ZN6StringpLERKS_
                0x00000000000022cc       0x34 ./src/main.o
                0x00000000000022cc                _ZN6StringpLERKS_
 .text._ZN6StringpLEPKc
                0x0000000000002300       0x34 ./src/main.o
                0x0000000000002300                _ZN6StringpLEPKc
 .text._ZN6StringpLEc
                0x0000000000002334       0x2a ./src/main.o
                0x0000000000002334                _ZN6StringpLEc
 .text._ZNK6StringeqEPKc
                0x000000000000235e       0x30 ./src/main.o
                0x000000000000235e                _ZNK6StringeqEPKc
 .text._ZNK6String11toCharArrayEPcjj
                0x000000000000238e       0x4a ./src/main.o
                0x000000000000238e                _ZNK6String11toCharArrayEPcjj
 .text._ZN15StringSumHelperC1ERK6String
                0x00000000000023d8       0x30 ./src/main.o
                0x00000000000023d8                _ZN15StringSumHelperC1ERK6String
 .text._ZN15StringSumHelperC1EPKc
                0x0000000000002408       0x30 ./src/main.o
                0x0000000000002408                _ZN15StringSumHelperC1EPKc
 .text._ZNK8DateTime4yearEv
                0x0000000000002438       0x2a ./src/main.o
                0x0000000000002438                _ZNK8DateTime4yearEv
 .text._ZNK8DateTime5monthEv
                0x0000000000002462       0x22 ./src/main.o
                0x0000000000002462                _ZNK8DateTime5monthEv
 .text._ZNK8DateTime3dayEv
                0x0000000000002484       0x22 ./src/main.o
                0x0000000000002484                _ZNK8DateTime3dayEv
 .text._ZNK8DateTime4hourEv
                0x00000000000024a6       0x22 ./src/main.o
                0x00000000000024a6                _ZNK8DateTime4hourEv
 .text._ZNK8DateTime6minuteEv
                0x00000000000024c8       0x22 ./src/main.o
                0x00000000000024c8                _ZNK8DateTime6minuteEv
 .text._ZNK8DateTime6secondEv
                0x00000000000024ea       0x22 ./src/main.o
                0x00000000000024ea                _ZNK8DateTime6secondEv
 .text.main     0x000000000000250c       0x16 ./src/main.o
                0x000000000000250c                main
 .text.setup    0x0000000000002522      0x1cc ./src/main.o
                0x0000000000002522                setup
 .text._Z5debug6String
                0x00000000000026ee       0x52 ./src/main.o
                0x00000000000026ee                _Z5debug6String
 .text._Z7checkPhv
                0x0000000000002740      0x1ce ./src/main.o
                0x0000000000002740                _Z7checkPhv
 .text._Z14sendHtmlHeaderv
                0x000000000000290e       0x1c ./src/main.o
                0x000000000000290e                _Z14sendHtmlHeaderv
 .text._Z7send404v
                0x000000000000292a       0x52 ./src/main.o
                0x000000000000292a                _Z7send404v
 .text._Z5replyi6StringS_
                0x000000000000297c       0x9c ./src/main.o
                0x000000000000297c                _Z5replyi6StringS_
 .text._Z16sendNotification6String
                0x0000000000002a18      0x162 ./src/main.o
                0x0000000000002a18                _Z16sendNotification6String
 .text._Z15availableMemoryv
                0x0000000000002b7a       0x58 ./src/main.o
                0x0000000000002b7a                _Z15availableMemoryv
 .text._ZN15StringSumHelperD1Ev
                0x0000000000002bd2       0x22 ./src/main.o
                0x0000000000002bd2                _ZN15StringSumHelperD1Ev
 .text._ZN5PrintaSERKS_
                0x0000000000002bf4       0x3a ./src/main.o
                0x0000000000002bf4                _ZN5PrintaSERKS_
 .text._ZN6StreamaSERKS_
                0x0000000000002c2e       0x6c ./src/main.o
                0x0000000000002c2e                _ZN6StreamaSERKS_
 .text._ZN6ClientaSERKS_
                0x0000000000002c9a       0x34 ./src/main.o
                0x0000000000002c9a                _ZN6ClientaSERKS_
 .text._ZN14EthernetClientaSERKS_
                0x0000000000002cce       0x44 ./src/main.o
                0x0000000000002cce                _ZN14EthernetClientaSERKS_
 .text.loop     0x0000000000002d12     0x1092 ./src/main.o
                0x0000000000002d12                loop
 .text._Z41__static_initialization_and_destruction_0ii
                0x0000000000003da4      0x144 ./src/main.o
 .text._GLOBAL__I_oneWire
                0x0000000000003ee8       0x1a ./src/main.o
 .text._GLOBAL__D_oneWire
                0x0000000000003f02       0x1a ./src/main.o
 .text._ZNK8DateTime4yearEv
                0x0000000000003f1c       0x2a ./lib/Chronodot.o
 .text._ZNK8DateTime5monthEv
                0x0000000000003f46       0x22 ./lib/Chronodot.o
 .text._ZNK8DateTime3dayEv
                0x0000000000003f68       0x22 ./lib/Chronodot.o
 .text._ZNK8DateTime4hourEv
                0x0000000000003f8a       0x22 ./lib/Chronodot.o
 .text._ZNK8DateTime6minuteEv
                0x0000000000003fac       0x22 ./lib/Chronodot.o
 .text._ZNK8DateTime6secondEv
                0x0000000000003fce       0x22 ./lib/Chronodot.o
 .text._ZL9date2daysjhh
                0x0000000000003ff0       0xea ./lib/Chronodot.o
 .text._ZL9time2longjhhh
                0x00000000000040da       0xa8 ./lib/Chronodot.o
 .text._ZN8DateTimeC2Em
                0x0000000000004182      0x21a ./lib/Chronodot.o
                0x0000000000004182                _ZN8DateTimeC1Em
                0x0000000000004182                _ZN8DateTimeC2Em
 .text._ZN8DateTimeC2Ejhhhhhif
                0x000000000000439c       0xc8 ./lib/Chronodot.o
                0x000000000000439c                _ZN8DateTimeC1Ejhhhhhif
                0x000000000000439c                _ZN8DateTimeC2Ejhhhhhif
 .text._ZL6conv2dPKc
                0x0000000000004464       0x64 ./lib/Chronodot.o
 .text._ZN8DateTimeC2EPKcS1_
                0x00000000000044c8      0x19e ./lib/Chronodot.o
                0x00000000000044c8                _ZN8DateTimeC2EPKcS1_
                0x00000000000044c8                _ZN8DateTimeC1EPKcS1_
 .text._ZNK8DateTime9dayOfWeekEv
                0x0000000000004666       0x56 ./lib/Chronodot.o
                0x0000000000004666                _ZNK8DateTime9dayOfWeekEv
 .text._ZNK8DateTime11secondstimeEv
                0x00000000000046bc       0x8e ./lib/Chronodot.o
                0x00000000000046bc                _ZNK8DateTime11secondstimeEv
 .text._ZNK8DateTime8unixtimeEv
                0x000000000000474a       0xa6 ./lib/Chronodot.o
                0x000000000000474a                _ZNK8DateTime8unixtimeEv
 .text._ZL7bcd2binh
                0x00000000000047f0       0x3c ./lib/Chronodot.o
 .text._ZL7bin2bcdh
                0x000000000000482c       0x2e ./lib/Chronodot.o
 .text._ZN9Chronodot5beginEv
                0x000000000000485a       0x10 ./lib/Chronodot.o
                0x000000000000485a                _ZN9Chronodot5beginEv
 .text._ZN9Chronodot9isrunningEv
                0x000000000000486a       0x6a ./lib/Chronodot.o
                0x000000000000486a                _ZN9Chronodot9isrunningEv
 .text._ZN9Chronodot6adjustERK8DateTime
                0x00000000000048d4      0x142 ./lib/Chronodot.o
                0x00000000000048d4                _ZN9Chronodot6adjustERK8DateTime
 .text._ZN9Chronodot3nowEv
                0x0000000000004a16      0x22a ./lib/Chronodot.o
                0x0000000000004a16                _ZN9Chronodot3nowEv
 .text._ZN10RTC_Millis6adjustERK8DateTime
                0x0000000000004c40       0x72 ./lib/Chronodot.o
                0x0000000000004c40                _ZN10RTC_Millis6adjustERK8DateTime
 .text._ZN10RTC_Millis3nowEv
                0x0000000000004cb2       0x54 ./lib/Chronodot.o
                0x0000000000004cb2                _ZN10RTC_Millis3nowEv
 .text._ZN17DallasTemperatureC2EP7OneWire
                0x0000000000004d06       0x6c ./lib/DallasTemperature.o
                0x0000000000004d06                _ZN17DallasTemperatureC2EP7OneWire
                0x0000000000004d06                _ZN17DallasTemperatureC1EP7OneWire
 .text._ZN17DallasTemperature5beginEv
                0x0000000000004d72      0x126 ./lib/DallasTemperature.o
                0x0000000000004d72                _ZN17DallasTemperature5beginEv
 .text._ZN17DallasTemperature14getDeviceCountEv
                0x0000000000004e98       0x22 ./lib/DallasTemperature.o
                0x0000000000004e98                _ZN17DallasTemperature14getDeviceCountEv
 .text._ZN17DallasTemperature12validAddressEPh
                0x0000000000004eba       0x40 ./lib/DallasTemperature.o
                0x0000000000004eba                _ZN17DallasTemperature12validAddressEPh
 .text._ZN17DallasTemperature10getAddressEPhh
                0x0000000000004efa       0x94 ./lib/DallasTemperature.o
                0x0000000000004efa                _ZN17DallasTemperature10getAddressEPhh
 .text._ZN17DallasTemperature11isConnectedEPh
                0x0000000000004f8e       0x44 ./lib/DallasTemperature.o
                0x0000000000004f8e                _ZN17DallasTemperature11isConnectedEPh
 .text._ZN17DallasTemperature11isConnectedEPhS0_
                0x0000000000004fd2       0x5c ./lib/DallasTemperature.o
                0x0000000000004fd2                _ZN17DallasTemperature11isConnectedEPhS0_
 .text._ZN17DallasTemperature14readScratchPadEPhS0_
                0x000000000000502e      0x16c ./lib/DallasTemperature.o
                0x000000000000502e                _ZN17DallasTemperature14readScratchPadEPhS0_
 .text._ZN17DallasTemperature15writeScratchPadEPhPKh
                0x000000000000519a      0x112 ./lib/DallasTemperature.o
                0x000000000000519a                _ZN17DallasTemperature15writeScratchPadEPhPKh
 .text._ZN17DallasTemperature15readPowerSupplyEPh
                0x00000000000052ac       0x8c ./lib/DallasTemperature.o
                0x00000000000052ac                _ZN17DallasTemperature15readPowerSupplyEPh
 .text._ZN17DallasTemperature13setResolutionEh
                0x0000000000005338       0x9e ./lib/DallasTemperature.o
                0x0000000000005338                _ZN17DallasTemperature13setResolutionEh
 .text._ZN17DallasTemperature13setResolutionEPhh
                0x00000000000053d6       0xa8 ./lib/DallasTemperature.o
                0x00000000000053d6                _ZN17DallasTemperature13setResolutionEPhh
 .text._ZN17DallasTemperature13getResolutionEv
                0x000000000000547e       0x22 ./lib/DallasTemperature.o
                0x000000000000547e                _ZN17DallasTemperature13getResolutionEv
 .text._ZN17DallasTemperature13getResolutionEPh
                0x00000000000054a0       0x90 ./lib/DallasTemperature.o
                0x00000000000054a0                _ZN17DallasTemperature13getResolutionEPh
 .text._ZN17DallasTemperature20setWaitForConversionEb
                0x0000000000005530       0x26 ./lib/DallasTemperature.o
                0x0000000000005530                _ZN17DallasTemperature20setWaitForConversionEb
 .text._ZN17DallasTemperature20getWaitForConversionEv
                0x0000000000005556       0x22 ./lib/DallasTemperature.o
                0x0000000000005556                _ZN17DallasTemperature20getWaitForConversionEv
 .text._ZN17DallasTemperature21setCheckForConversionEb
                0x0000000000005578       0x26 ./lib/DallasTemperature.o
                0x0000000000005578                _ZN17DallasTemperature21setCheckForConversionEb
 .text._ZN17DallasTemperature21getCheckForConversionEv
                0x000000000000559e       0x22 ./lib/DallasTemperature.o
                0x000000000000559e                _ZN17DallasTemperature21getCheckForConversionEv
 .text._ZN17DallasTemperature21isConversionAvailableEPh
                0x00000000000055c0       0x4e ./lib/DallasTemperature.o
                0x00000000000055c0                _ZN17DallasTemperature21isConversionAvailableEPh
 .text._ZN17DallasTemperature19requestTemperaturesEv
                0x000000000000560e       0x7e ./lib/DallasTemperature.o
                0x000000000000560e                _ZN17DallasTemperature19requestTemperaturesEv
 .text._ZN17DallasTemperature28requestTemperaturesByAddressEPh
                0x000000000000568c       0xca ./lib/DallasTemperature.o
                0x000000000000568c                _ZN17DallasTemperature28requestTemperaturesByAddressEPh
 .text._ZN17DallasTemperature27blockTillConversionCompleteEPhS0_
                0x0000000000005756      0x128 ./lib/DallasTemperature.o
                0x0000000000005756                _ZN17DallasTemperature27blockTillConversionCompleteEPhS0_
 .text._ZN17DallasTemperature26requestTemperaturesByIndexEh
                0x000000000000587e       0x4e ./lib/DallasTemperature.o
                0x000000000000587e                _ZN17DallasTemperature26requestTemperaturesByIndexEh
 .text._ZN17DallasTemperature15getTempCByIndexEh
                0x00000000000058cc       0x56 ./lib/DallasTemperature.o
                0x00000000000058cc                _ZN17DallasTemperature15getTempCByIndexEh
 .text._ZN17DallasTemperature15getTempFByIndexEh
                0x0000000000005922       0x3a ./lib/DallasTemperature.o
                0x0000000000005922                _ZN17DallasTemperature15getTempFByIndexEh
 .text._ZN17DallasTemperature20calculateTemperatureEPhS0_
                0x000000000000595c      0x24e ./lib/DallasTemperature.o
                0x000000000000595c                _ZN17DallasTemperature20calculateTemperatureEPhS0_
 .text._ZN17DallasTemperature8getTempCEPh
                0x0000000000005baa       0x70 ./lib/DallasTemperature.o
                0x0000000000005baa                _ZN17DallasTemperature8getTempCEPh
 .text._ZN17DallasTemperature8getTempFEPh
                0x0000000000005c1a       0x44 ./lib/DallasTemperature.o
                0x0000000000005c1a                _ZN17DallasTemperature8getTempFEPh
 .text._ZN17DallasTemperature19isParasitePowerModeEv
                0x0000000000005c5e       0x22 ./lib/DallasTemperature.o
                0x0000000000005c5e                _ZN17DallasTemperature19isParasitePowerModeEv
 .text._ZN17DallasTemperature16setHighAlarmTempEPhc
                0x0000000000005c80       0x7a ./lib/DallasTemperature.o
                0x0000000000005c80                _ZN17DallasTemperature16setHighAlarmTempEPhc
 .text._ZN17DallasTemperature15setLowAlarmTempEPhc
                0x0000000000005cfa       0x7a ./lib/DallasTemperature.o
                0x0000000000005cfa                _ZN17DallasTemperature15setLowAlarmTempEPhc
 .text._ZN17DallasTemperature16getHighAlarmTempEPh
                0x0000000000005d74       0x4e ./lib/DallasTemperature.o
                0x0000000000005d74                _ZN17DallasTemperature16getHighAlarmTempEPh
 .text._ZN17DallasTemperature15getLowAlarmTempEPh
                0x0000000000005dc2       0x4e ./lib/DallasTemperature.o
                0x0000000000005dc2                _ZN17DallasTemperature15getLowAlarmTempEPh
 .text._ZN17DallasTemperature16resetAlarmSearchEv
                0x0000000000005e10       0x58 ./lib/DallasTemperature.o
                0x0000000000005e10                _ZN17DallasTemperature16resetAlarmSearchEv
 .text._ZN17DallasTemperature11alarmSearchEPh
                0x0000000000005e68      0x246 ./lib/DallasTemperature.o
                0x0000000000005e68                _ZN17DallasTemperature11alarmSearchEPh
 .text._ZN17DallasTemperature8hasAlarmEPh
                0x00000000000060ae       0xa4 ./lib/DallasTemperature.o
                0x00000000000060ae                _ZN17DallasTemperature8hasAlarmEPh
 .text._ZN17DallasTemperature8hasAlarmEv
                0x0000000000006152       0x42 ./lib/DallasTemperature.o
                0x0000000000006152                _ZN17DallasTemperature8hasAlarmEv
 .text._ZN17DallasTemperature13processAlarmsEv
                0x0000000000006194       0x6e ./lib/DallasTemperature.o
                0x0000000000006194                _ZN17DallasTemperature13processAlarmsEv
 .text._ZN17DallasTemperature15setAlarmHandlerEPFvPhE
                0x0000000000006202       0x30 ./lib/DallasTemperature.o
                0x0000000000006202                _ZN17DallasTemperature15setAlarmHandlerEPFvPhE
 .text._ZN17DallasTemperature19defaultAlarmHandlerEPh
                0x0000000000006232       0x1a ./lib/DallasTemperature.o
                0x0000000000006232                _ZN17DallasTemperature19defaultAlarmHandlerEPh
 .text._ZN17DallasTemperature12toFahrenheitEf
                0x000000000000624c       0x52 ./lib/DallasTemperature.o
                0x000000000000624c                _ZN17DallasTemperature12toFahrenheitEf
 .text._ZN17DallasTemperature9toCelsiusEf
                0x000000000000629e       0x52 ./lib/DallasTemperature.o
                0x000000000000629e                _ZN17DallasTemperature9toCelsiusEf
 .text._ZN7OneWireC2Eh
                0x00000000000062f0       0xbe ./lib/OneWire.o
                0x00000000000062f0                _ZN7OneWireC2Eh
                0x00000000000062f0                _ZN7OneWireC1Eh
 .text._ZN7OneWire5resetEv
                0x00000000000063ae      0x12e ./lib/OneWire.o
                0x00000000000063ae                _ZN7OneWire5resetEv
 .text._ZN7OneWire9write_bitEh
                0x00000000000064dc      0x118 ./lib/OneWire.o
                0x00000000000064dc                _ZN7OneWire9write_bitEh
 .text._ZN7OneWire8read_bitEv
                0x00000000000065f4       0xc6 ./lib/OneWire.o
                0x00000000000065f4                _ZN7OneWire8read_bitEv
 .text._ZN7OneWire5writeEhh
                0x00000000000066ba       0xc4 ./lib/OneWire.o
                0x00000000000066ba                _ZN7OneWire5writeEhh
 .text._ZN7OneWire11write_bytesEPKhjb
                0x000000000000677e       0xe4 ./lib/OneWire.o
                0x000000000000677e                _ZN7OneWire11write_bytesEPKhjb
 .text._ZN7OneWire4readEv
                0x0000000000006862       0x5a ./lib/OneWire.o
                0x0000000000006862                _ZN7OneWire4readEv
 .text._ZN7OneWire10read_bytesEPhj
                0x00000000000068bc       0x7a ./lib/OneWire.o
                0x00000000000068bc                _ZN7OneWire10read_bytesEPhj
 .text._ZN7OneWire6selectEPh
                0x0000000000006936       0x70 ./lib/OneWire.o
                0x0000000000006936                _ZN7OneWire6selectEPh
 .text._ZN7OneWire4skipEv
                0x00000000000069a6       0x26 ./lib/OneWire.o
                0x00000000000069a6                _ZN7OneWire4skipEv
 .text._ZN7OneWire7depowerEv
                0x00000000000069cc       0x4e ./lib/OneWire.o
                0x00000000000069cc                _ZN7OneWire7depowerEv
 .text._ZN7OneWire12reset_searchEv
                0x0000000000006a1a       0x66 ./lib/OneWire.o
                0x0000000000006a1a                _ZN7OneWire12reset_searchEv
 .text._ZN7OneWire6searchEPh
                0x0000000000006a80      0x25c ./lib/OneWire.o
                0x0000000000006a80                _ZN7OneWire6searchEPh
 .text._ZN7OneWire4crc8EPhh
                0x0000000000006cdc       0x7a ./lib/OneWire.o
                0x0000000000006cdc                _ZN7OneWire4crc8EPhh
 .text._ZN7OneWire11check_crc16EPhjS0_
                0x0000000000006d56       0x84 ./lib/OneWire.o
                0x0000000000006d56                _ZN7OneWire11check_crc16EPhjS0_
 .text._ZN7OneWire5crc16EPhj
                0x0000000000006dda      0x11a ./lib/OneWire.o
                0x0000000000006dda                _ZN7OneWire5crc16EPhj
 .text._Z8twi_initv
                0x0000000000006ef4       0x62 ./arduinolib/Wire/utility/twi.o
                0x0000000000006ef4                _Z8twi_initv
 .text._Z14twi_setAddressh
                0x0000000000006f56       0x20 ./arduinolib/Wire/utility/twi.o
                0x0000000000006f56                _Z14twi_setAddressh
 .text._Z12twi_readFromhPhhh
                0x0000000000006f76      0x11c ./arduinolib/Wire/utility/twi.o
                0x0000000000006f76                _Z12twi_readFromhPhhh
 .text._Z11twi_writeTohPhhhh
                0x0000000000007092      0x152 ./arduinolib/Wire/utility/twi.o
                0x0000000000007092                _Z11twi_writeTohPhhhh
 .text._Z12twi_transmitPKhh
                0x00000000000071e4       0x80 ./arduinolib/Wire/utility/twi.o
                0x00000000000071e4                _Z12twi_transmitPKhh
 .text._Z22twi_attachSlaveRxEventPFvPhiE
                0x0000000000007264       0x26 ./arduinolib/Wire/utility/twi.o
                0x0000000000007264                _Z22twi_attachSlaveRxEventPFvPhiE
 .text._Z22twi_attachSlaveTxEventPFvvE
                0x000000000000728a       0x26 ./arduinolib/Wire/utility/twi.o
                0x000000000000728a                _Z22twi_attachSlaveTxEventPFvvE
 .text._Z9twi_replyh
                0x00000000000072b0       0x30 ./arduinolib/Wire/utility/twi.o
                0x00000000000072b0                _Z9twi_replyh
 .text._Z8twi_stopv
                0x00000000000072e0       0x3c ./arduinolib/Wire/utility/twi.o
                0x00000000000072e0                _Z8twi_stopv
 .text._Z14twi_releaseBusv
                0x000000000000731c       0x1c ./arduinolib/Wire/utility/twi.o
                0x000000000000731c                _Z14twi_releaseBusv
 .text.__vector_39
                0x0000000000007338      0x300 ./arduinolib/Wire/utility/twi.o
                0x0000000000007338                __vector_39
 .text._ZN5Print13setWriteErrorEi
                0x0000000000007638       0x30 ./arduinolib/Wire/Wire.o
                0x0000000000007638                _ZN5Print13setWriteErrorEi
 .text._ZN5PrintC2Ev
                0x0000000000007668       0x32 ./arduinolib/Wire/Wire.o
                0x0000000000007668                _ZN5PrintC2Ev
 .text._ZN6StreamC2Ev
                0x000000000000769a       0x46 ./arduinolib/Wire/Wire.o
                0x000000000000769a                _ZN6StreamC2Ev
 .text._ZN7TwoWireC2Ev
                0x00000000000076e0       0x30 ./arduinolib/Wire/Wire.o
                0x00000000000076e0                _ZN7TwoWireC2Ev
                0x00000000000076e0                _ZN7TwoWireC1Ev
 .text._ZN7TwoWire5beginEv
                0x0000000000007710       0x2e ./arduinolib/Wire/Wire.o
                0x0000000000007710                _ZN7TwoWire5beginEv
 .text._ZN7TwoWire5beginEh
                0x000000000000773e       0x3a ./arduinolib/Wire/Wire.o
                0x000000000000773e                _ZN7TwoWire5beginEh
 .text._ZN7TwoWire5beginEi
                0x0000000000007778       0x2e ./arduinolib/Wire/Wire.o
                0x0000000000007778                _ZN7TwoWire5beginEi
 .text._ZN7TwoWire11requestFromEhhh
                0x00000000000077a6       0x50 ./arduinolib/Wire/Wire.o
                0x00000000000077a6                _ZN7TwoWire11requestFromEhhh
 .text._ZN7TwoWire11requestFromEhh
                0x00000000000077f6       0x30 ./arduinolib/Wire/Wire.o
                0x00000000000077f6                _ZN7TwoWire11requestFromEhh
 .text._ZN7TwoWire11requestFromEii
                0x0000000000007826       0x3c ./arduinolib/Wire/Wire.o
                0x0000000000007826                _ZN7TwoWire11requestFromEii
 .text._ZN7TwoWire11requestFromEiii
                0x0000000000007862       0x48 ./arduinolib/Wire/Wire.o
                0x0000000000007862                _ZN7TwoWire11requestFromEiii
 .text._ZN7TwoWire17beginTransmissionEh
                0x00000000000078aa       0x30 ./arduinolib/Wire/Wire.o
                0x00000000000078aa                _ZN7TwoWire17beginTransmissionEh
 .text._ZN7TwoWire17beginTransmissionEi
                0x00000000000078da       0x2e ./arduinolib/Wire/Wire.o
                0x00000000000078da                _ZN7TwoWire17beginTransmissionEi
 .text._ZN7TwoWire15endTransmissionEh
                0x0000000000007908       0x4c ./arduinolib/Wire/Wire.o
                0x0000000000007908                _ZN7TwoWire15endTransmissionEh
 .text._ZN7TwoWire15endTransmissionEv
                0x0000000000007954       0x24 ./arduinolib/Wire/Wire.o
                0x0000000000007954                _ZN7TwoWire15endTransmissionEv
 .text._ZN7TwoWire5writeEh
                0x0000000000007978       0x72 ./arduinolib/Wire/Wire.o
                0x0000000000007978                _ZN7TwoWire5writeEh
 .text._ZN7TwoWire5writeEPKhj
                0x00000000000079ea       0x9c ./arduinolib/Wire/Wire.o
                0x00000000000079ea                _ZN7TwoWire5writeEPKhj
 .text._ZN7TwoWire9availableEv
                0x0000000000007a86       0x32 ./arduinolib/Wire/Wire.o
                0x0000000000007a86                _ZN7TwoWire9availableEv
 .text._ZN7TwoWire4readEv
                0x0000000000007ab8       0x58 ./arduinolib/Wire/Wire.o
                0x0000000000007ab8                _ZN7TwoWire4readEv
 .text._ZN7TwoWire4peekEv
                0x0000000000007b10       0x4e ./arduinolib/Wire/Wire.o
                0x0000000000007b10                _ZN7TwoWire4peekEv
 .text._ZN7TwoWire5flushEv
                0x0000000000007b5e       0x1a ./arduinolib/Wire/Wire.o
                0x0000000000007b5e                _ZN7TwoWire5flushEv
 .text._ZN7TwoWire16onReceiveServiceEPhi
                0x0000000000007b78       0xa2 ./arduinolib/Wire/Wire.o
                0x0000000000007b78                _ZN7TwoWire16onReceiveServiceEPhi
 .text._ZN7TwoWire16onRequestServiceEv
                0x0000000000007c1a       0x32 ./arduinolib/Wire/Wire.o
                0x0000000000007c1a                _ZN7TwoWire16onRequestServiceEv
 .text._ZN7TwoWire9onReceiveEPFviE
                0x0000000000007c4c       0x2e ./arduinolib/Wire/Wire.o
                0x0000000000007c4c                _ZN7TwoWire9onReceiveEPFviE
 .text._ZN7TwoWire9onRequestEPFvvE
                0x0000000000007c7a       0x2e ./arduinolib/Wire/Wire.o
                0x0000000000007c7a                _ZN7TwoWire9onRequestEPFvvE
 .text._Z41__static_initialization_and_destruction_0ii
                0x0000000000007ca8       0x40 ./arduinolib/Wire/Wire.o
 .text._GLOBAL__I__ZN7TwoWire8rxBufferE
                0x0000000000007ce8       0x1a ./arduinolib/Wire/Wire.o
 .text._ZN8SPIClass5beginEv
                0x0000000000007d02       0x62 ./arduinolib/SPI/SPI.o
                0x0000000000007d02                _ZN8SPIClass5beginEv
 .text._ZN8SPIClass3endEv
                0x0000000000007d64       0x20 ./arduinolib/SPI/SPI.o
                0x0000000000007d64                _ZN8SPIClass3endEv
 .text._ZN8SPIClass11setBitOrderEh
                0x0000000000007d84       0x40 ./arduinolib/SPI/SPI.o
                0x0000000000007d84                _ZN8SPIClass11setBitOrderEh
 .text._ZN8SPIClass11setDataModeEh
                0x0000000000007dc4       0x2c ./arduinolib/SPI/SPI.o
                0x0000000000007dc4                _ZN8SPIClass11setDataModeEh
 .text._ZN8SPIClass15setClockDividerEh
                0x0000000000007df0       0x54 ./arduinolib/SPI/SPI.o
                0x0000000000007df0                _ZN8SPIClass15setClockDividerEh
 .text._ZN10W5100Class9writeSnMREhh
                0x0000000000007e44       0x26 ./arduinolib/Ethernet/utility/socket.o
                0x0000000000007e44                _ZN10W5100Class9writeSnMREhh
 .text._ZN10W5100Class8readSnMREh
                0x0000000000007e6a       0x1e ./arduinolib/Ethernet/utility/socket.o
                0x0000000000007e6a                _ZN10W5100Class8readSnMREh
 .text._ZN10W5100Class9writeSnIREhh
                0x0000000000007e88       0x26 ./arduinolib/Ethernet/utility/socket.o
                0x0000000000007e88                _ZN10W5100Class9writeSnIREhh
 .text._ZN10W5100Class8readSnIREh
                0x0000000000007eae       0x1e ./arduinolib/Ethernet/utility/socket.o
                0x0000000000007eae                _ZN10W5100Class8readSnIREh
 .text._ZN10W5100Class8readSnSREh
                0x0000000000007ecc       0x1e ./arduinolib/Ethernet/utility/socket.o
                0x0000000000007ecc                _ZN10W5100Class8readSnSREh
 .text._ZN10W5100Class11writeSnPORTEhj
                0x0000000000007eea       0x40 ./arduinolib/Ethernet/utility/socket.o
                0x0000000000007eea                _ZN10W5100Class11writeSnPORTEhj
 .text._ZN10W5100Class11writeSnDIPREhPh
                0x0000000000007f2a       0x30 ./arduinolib/Ethernet/utility/socket.o
                0x0000000000007f2a                _ZN10W5100Class11writeSnDIPREhPh
 .text._ZN10W5100Class12writeSnDPORTEhj
                0x0000000000007f5a       0x40 ./arduinolib/Ethernet/utility/socket.o
                0x0000000000007f5a                _ZN10W5100Class12writeSnDPORTEhj
 .text._ZN10W5100Class12writeSnRX_RDEhj
                0x0000000000007f9a       0x40 ./arduinolib/Ethernet/utility/socket.o
                0x0000000000007f9a                _ZN10W5100Class12writeSnRX_RDEhj
 .text._ZN10W5100Class11readSnRX_RDEh
                0x0000000000007fda       0x54 ./arduinolib/Ethernet/utility/socket.o
                0x0000000000007fda                _ZN10W5100Class11readSnRX_RDEh
 .text._ZN10W5100Class6readSnEhj
                0x000000000000802e       0x34 ./arduinolib/Ethernet/utility/socket.o
                0x000000000000802e                _ZN10W5100Class6readSnEhj
 .text._ZN10W5100Class7writeSnEhjh
                0x0000000000008062       0x3c ./arduinolib/Ethernet/utility/socket.o
                0x0000000000008062                _ZN10W5100Class7writeSnEhjh
 .text._ZN10W5100Class7writeSnEhjPhj
                0x000000000000809e       0x58 ./arduinolib/Ethernet/utility/socket.o
                0x000000000000809e                _ZN10W5100Class7writeSnEhjPhj
 .text._Z6sockethhjh
                0x00000000000080f6       0xa6 ./arduinolib/Ethernet/utility/socket.o
                0x00000000000080f6                _Z6sockethhjh
 .text._Z5closeh
                0x000000000000819c       0x2a ./arduinolib/Ethernet/utility/socket.o
                0x000000000000819c                _Z5closeh
 .text._Z6listenh
                0x00000000000081c6       0x3c ./arduinolib/Ethernet/utility/socket.o
                0x00000000000081c6                _Z6listenh
 .text._Z7connecthPhj
                0x0000000000008202       0xc8 ./arduinolib/Ethernet/utility/socket.o
                0x0000000000008202                _Z7connecthPhj
 .text._Z10disconnecth
                0x00000000000082ca       0x22 ./arduinolib/Ethernet/utility/socket.o
                0x00000000000082ca                _Z10disconnecth
 .text._Z4sendhPKhj
                0x00000000000082ec       0xfe ./arduinolib/Ethernet/utility/socket.o
                0x00000000000082ec                _Z4sendhPKhj
 .text._Z4recvhPhj
                0x00000000000083ea       0xb8 ./arduinolib/Ethernet/utility/socket.o
                0x00000000000083ea                _Z4recvhPhj
 .text._Z4peekhPh
                0x00000000000084a2       0x3a ./arduinolib/Ethernet/utility/socket.o
                0x00000000000084a2                _Z4peekhPh
 .text._Z6sendtohPKhjPhj
                0x00000000000084dc      0x136 ./arduinolib/Ethernet/utility/socket.o
                0x00000000000084dc                _Z6sendtohPKhjPhj
 .text._Z8recvfromhPhjS_Pj
                0x0000000000008612      0x28e ./arduinolib/Ethernet/utility/socket.o
                0x0000000000008612                _Z8recvfromhPhjS_Pj
 .text._Z8igmpsendhPKhj
                0x00000000000088a0       0xd8 ./arduinolib/Ethernet/utility/socket.o
                0x00000000000088a0                _Z8igmpsendhPKhj
 .text._Z10bufferDatahjPKhj
                0x0000000000008978       0x92 ./arduinolib/Ethernet/utility/socket.o
                0x0000000000008978                _Z10bufferDatahjPKhj
 .text._Z8startUDPhPhj
                0x0000000000008a0a       0x88 ./arduinolib/Ethernet/utility/socket.o
                0x0000000000008a0a                _Z8startUDPhPhj
 .text._Z7sendUDPh
                0x0000000000008a92       0x72 ./arduinolib/Ethernet/utility/socket.o
                0x0000000000008a92                _Z7sendUDPh
 .text._ZN8SPIClass8transferEh
                0x0000000000008b04       0x3c ./arduinolib/Ethernet/utility/w5100.o
                0x0000000000008b04                _ZN8SPIClass8transferEh
 .text._ZN10W5100Class7writeMREh
                0x0000000000008b40       0x1e ./arduinolib/Ethernet/utility/w5100.o
                0x0000000000008b40                _ZN10W5100Class7writeMREh
 .text._ZN10W5100Class9writeRMSREh
                0x0000000000008b5e       0x1e ./arduinolib/Ethernet/utility/w5100.o
                0x0000000000008b5e                _ZN10W5100Class9writeRMSREh
 .text._ZN10W5100Class9writeTMSREh
                0x0000000000008b7c       0x1e ./arduinolib/Ethernet/utility/w5100.o
                0x0000000000008b7c                _ZN10W5100Class9writeTMSREh
 .text._ZN10W5100Class9writeSnCREhh
                0x0000000000008b9a       0x26 ./arduinolib/Ethernet/utility/w5100.o
                0x0000000000008b9a                _ZN10W5100Class9writeSnCREhh
 .text._ZN10W5100Class8readSnCREh
                0x0000000000008bc0       0x1e ./arduinolib/Ethernet/utility/w5100.o
                0x0000000000008bc0                _ZN10W5100Class8readSnCREh
 .text._ZN10W5100Class12readSnTX_FSREh
                0x0000000000008bde       0x54 ./arduinolib/Ethernet/utility/w5100.o
                0x0000000000008bde                _ZN10W5100Class12readSnTX_FSREh
 .text._ZN10W5100Class12writeSnTX_WREhj
                0x0000000000008c32       0x40 ./arduinolib/Ethernet/utility/w5100.o
                0x0000000000008c32                _ZN10W5100Class12writeSnTX_WREhj
 .text._ZN10W5100Class11readSnTX_WREh
                0x0000000000008c72       0x54 ./arduinolib/Ethernet/utility/w5100.o
                0x0000000000008c72                _ZN10W5100Class11readSnTX_WREh
 .text._ZN10W5100Class12readSnRX_RSREh
                0x0000000000008cc6       0x54 ./arduinolib/Ethernet/utility/w5100.o
                0x0000000000008cc6                _ZN10W5100Class12readSnRX_RSREh
 .text._ZN10W5100Class12writeSnRX_RDEhj
                0x0000000000008d1a       0x40 ./arduinolib/Ethernet/utility/w5100.o
 .text._ZN10W5100Class11readSnRX_RDEh
                0x0000000000008d5a       0x54 ./arduinolib/Ethernet/utility/w5100.o
 .text._ZN10W5100Class6initSSEv
                0x0000000000008dae       0x20 ./arduinolib/Ethernet/utility/w5100.o
                0x0000000000008dae                _ZN10W5100Class6initSSEv
 .text._ZN10W5100Class5setSSEv
                0x0000000000008dce       0x20 ./arduinolib/Ethernet/utility/w5100.o
                0x0000000000008dce                _ZN10W5100Class5setSSEv
 .text._ZN10W5100Class7resetSSEv
                0x0000000000008dee       0x20 ./arduinolib/Ethernet/utility/w5100.o
                0x0000000000008dee                _ZN10W5100Class7resetSSEv
 .text._ZN10W5100Class6readSnEhj
                0x0000000000008e0e       0x34 ./arduinolib/Ethernet/utility/w5100.o
 .text._ZN10W5100Class7writeSnEhjh
                0x0000000000008e42       0x3c ./arduinolib/Ethernet/utility/w5100.o
 .text._ZN10W5100Class4initEv
                0x0000000000008e7e       0xb8 ./arduinolib/Ethernet/utility/w5100.o
                0x0000000000008e7e                _ZN10W5100Class4initEv
 .text._ZN10W5100Class13getTXFreeSizeEh
                0x0000000000008f36       0x6a ./arduinolib/Ethernet/utility/w5100.o
                0x0000000000008f36                _ZN10W5100Class13getTXFreeSizeEh
 .text._ZN10W5100Class17getRXReceivedSizeEh
                0x0000000000008fa0       0x6a ./arduinolib/Ethernet/utility/w5100.o
                0x0000000000008fa0                _ZN10W5100Class17getRXReceivedSizeEh
 .text._ZN10W5100Class20send_data_processingEhPKhj
                0x000000000000900a       0x54 ./arduinolib/Ethernet/utility/w5100.o
                0x000000000000900a                _ZN10W5100Class20send_data_processingEhPKhj
 .text._ZN10W5100Class27send_data_processing_offsetEhjPKhj
                0x000000000000905e      0x132 ./arduinolib/Ethernet/utility/w5100.o
                0x000000000000905e                _ZN10W5100Class27send_data_processing_offsetEhjPKhj
 .text._ZN10W5100Class20recv_data_processingEhPhjh
                0x0000000000009190       0x82 ./arduinolib/Ethernet/utility/w5100.o
                0x0000000000009190                _ZN10W5100Class20recv_data_processingEhPhjh
 .text._ZN10W5100Class9read_dataEhPVhS1_j
                0x0000000000009212      0x108 ./arduinolib/Ethernet/utility/w5100.o
                0x0000000000009212                _ZN10W5100Class9read_dataEhPVhS1_j
 .text._ZN10W5100Class5writeEjh
                0x000000000000931a       0x44 ./arduinolib/Ethernet/utility/w5100.o
                0x000000000000931a                _ZN10W5100Class5writeEjh
 .text._ZN10W5100Class5writeEjPKhj
                0x000000000000935e       0x9a ./arduinolib/Ethernet/utility/w5100.o
                0x000000000000935e                _ZN10W5100Class5writeEjPKhj
 .text._ZN10W5100Class4readEj
                0x00000000000093f8       0x44 ./arduinolib/Ethernet/utility/w5100.o
                0x00000000000093f8                _ZN10W5100Class4readEj
 .text._ZN10W5100Class4readEjPhj
                0x000000000000943c       0xa6 ./arduinolib/Ethernet/utility/w5100.o
                0x000000000000943c                _ZN10W5100Class4readEjPhj
 .text._ZN10W5100Class9execCmdSnEh7SockCMD
                0x00000000000094e2       0x48 ./arduinolib/Ethernet/utility/w5100.o
                0x00000000000094e2                _ZN10W5100Class9execCmdSnEh7SockCMD
 .text._ZN9IPAddresseqERKS_
                0x000000000000952a       0x52 ./arduinolib/Ethernet/Dhcp.o
                0x000000000000952a                _ZN9IPAddresseqERKS_
 .text._ZN9PrintableC2ERKS_
                0x000000000000957c       0x30 ./arduinolib/Ethernet/Dhcp.o
                0x000000000000957c                _ZN9PrintableC2ERKS_
 .text._ZN9IPAddressC1ERKS_
                0x00000000000095ac       0x5a ./arduinolib/Ethernet/Dhcp.o
                0x00000000000095ac                _ZN9IPAddressC1ERKS_
 .text._ZN11EthernetUDP8remoteIPEv
                0x0000000000009606       0x38 ./arduinolib/Ethernet/Dhcp.o
                0x0000000000009606                _ZN11EthernetUDP8remoteIPEv
 .text._ZN11EthernetUDP10remotePortEv
                0x000000000000963e       0x24 ./arduinolib/Ethernet/Dhcp.o
                0x000000000000963e                _ZN11EthernetUDP10remotePortEv
 .text._ZN9DhcpClass13beginWithDHCPEPhmm
                0x0000000000009662      0x2be ./arduinolib/Ethernet/Dhcp.o
                0x0000000000009662                _ZN9DhcpClass13beginWithDHCPEPhmm
 .text._ZN9DhcpClass12presend_DHCPEv
                0x0000000000009920       0x1a ./arduinolib/Ethernet/Dhcp.o
                0x0000000000009920                _ZN9DhcpClass12presend_DHCPEv
 .text._ZN9DhcpClass17send_DHCP_MESSAGEEhj
                0x000000000000993a      0x35c ./arduinolib/Ethernet/Dhcp.o
                0x000000000000993a                _ZN9DhcpClass17send_DHCP_MESSAGEEhj
 .text._ZN9DhcpClass17parseDHCPResponseEmRm
                0x0000000000009c96      0x47e ./arduinolib/Ethernet/Dhcp.o
                0x0000000000009c96                _ZN9DhcpClass17parseDHCPResponseEmRm
 .text._ZN9DhcpClass10getLocalIpEv
                0x000000000000a114       0x38 ./arduinolib/Ethernet/Dhcp.o
                0x000000000000a114                _ZN9DhcpClass10getLocalIpEv
 .text._ZN9DhcpClass13getSubnetMaskEv
                0x000000000000a14c       0x38 ./arduinolib/Ethernet/Dhcp.o
                0x000000000000a14c                _ZN9DhcpClass13getSubnetMaskEv
 .text._ZN9DhcpClass12getGatewayIpEv
                0x000000000000a184       0x38 ./arduinolib/Ethernet/Dhcp.o
                0x000000000000a184                _ZN9DhcpClass12getGatewayIpEv
 .text._ZN9DhcpClass15getDhcpServerIpEv
                0x000000000000a1bc       0x38 ./arduinolib/Ethernet/Dhcp.o
                0x000000000000a1bc                _ZN9DhcpClass15getDhcpServerIpEv
 .text._ZN9DhcpClass14getDnsServerIpEv
                0x000000000000a1f4       0x38 ./arduinolib/Ethernet/Dhcp.o
                0x000000000000a1f4                _ZN9DhcpClass14getDnsServerIpEv
 .text._Z41__static_initialization_and_destruction_0ii
                0x000000000000a22c       0x4c ./arduinolib/Ethernet/Dhcp.o
 .text._GLOBAL__I__ZN9DhcpClass13beginWithDHCPEPhmm
                0x000000000000a278       0x1a ./arduinolib/Ethernet/Dhcp.o
 .text._ZN9IPAddress11raw_addressEv
                0x000000000000a292       0x20 ./arduinolib/Ethernet/Dns.o
                0x000000000000a292                _ZN9IPAddress11raw_addressEv
 .text._ZN9IPAddresscvmEv
                0x000000000000a2b2       0x2e ./arduinolib/Ethernet/Dns.o
                0x000000000000a2b2                _ZN9IPAddresscvmEv
 .text._ZN9IPAddresseqERKS_
                0x000000000000a2e0       0x52 ./arduinolib/Ethernet/Dns.o
 .text._ZN9IPAddressixEi
                0x000000000000a332       0x30 ./arduinolib/Ethernet/Dns.o
                0x000000000000a332                _ZN9IPAddressixEi
 .text._ZN9PrintableC2ERKS_
                0x000000000000a362       0x30 ./arduinolib/Ethernet/Dns.o
 .text._ZN9IPAddressC1ERKS_
                0x000000000000a392       0x5a ./arduinolib/Ethernet/Dns.o
 .text._ZN11EthernetUDP8remoteIPEv
                0x000000000000a3ec       0x38 ./arduinolib/Ethernet/Dns.o
 .text._ZN11EthernetUDP10remotePortEv
                0x000000000000a424       0x24 ./arduinolib/Ethernet/Dns.o
 .text._ZN9PrintableaSERKS_
                0x000000000000a448       0x26 ./arduinolib/Ethernet/Dns.o
                0x000000000000a448                _ZN9PrintableaSERKS_
 .text._ZN9IPAddressaSERKS_
                0x000000000000a46e       0x50 ./arduinolib/Ethernet/Dns.o
                0x000000000000a46e                _ZN9IPAddressaSERKS_
 .text._ZN9DNSClient5beginERK9IPAddress
                0x000000000000a4be       0x3a ./arduinolib/Ethernet/Dns.o
                0x000000000000a4be                _ZN9DNSClient5beginERK9IPAddress
 .text._ZN9DNSClient9inet_atonEPKcR9IPAddress
                0x000000000000a4f8      0x176 ./arduinolib/Ethernet/Dns.o
                0x000000000000a4f8                _ZN9DNSClient9inet_atonEPKcR9IPAddress
 .text._ZN9DNSClient13getHostByNameEPKcR9IPAddress
                0x000000000000a66e      0x182 ./arduinolib/Ethernet/Dns.o
                0x000000000000a66e                _ZN9DNSClient13getHostByNameEPKcR9IPAddress
 .text._ZN9DNSClient12BuildRequestEPKc
                0x000000000000a7f0      0x1fc ./arduinolib/Ethernet/Dns.o
                0x000000000000a7f0                _ZN9DNSClient12BuildRequestEPKc
 .text._ZN9DNSClient15ProcessResponseEjR9IPAddress
                0x000000000000a9ec      0x424 ./arduinolib/Ethernet/Dns.o
                0x000000000000a9ec                _ZN9DNSClient15ProcessResponseEjR9IPAddress
 .text._Z41__static_initialization_and_destruction_0ii
                0x000000000000ae10       0x4c ./arduinolib/Ethernet/Dns.o
 .text._GLOBAL__I__ZN9DNSClient5beginERK9IPAddress
                0x000000000000ae5c       0x1a ./arduinolib/Ethernet/Dns.o
 .text._ZN10W5100Class8writeGAREPh
                0x000000000000ae76       0x2c ./arduinolib/Ethernet/Ethernet.o
                0x000000000000ae76                _ZN10W5100Class8writeGAREPh
 .text._ZN10W5100Class7readGAREPh
                0x000000000000aea2       0x2c ./arduinolib/Ethernet/Ethernet.o
                0x000000000000aea2                _ZN10W5100Class7readGAREPh
 .text._ZN10W5100Class9writeSUBREPh
                0x000000000000aece       0x2c ./arduinolib/Ethernet/Ethernet.o
                0x000000000000aece                _ZN10W5100Class9writeSUBREPh
 .text._ZN10W5100Class8readSUBREPh
                0x000000000000aefa       0x2c ./arduinolib/Ethernet/Ethernet.o
                0x000000000000aefa                _ZN10W5100Class8readSUBREPh
 .text._ZN10W5100Class9writeSHAREPh
                0x000000000000af26       0x2c ./arduinolib/Ethernet/Ethernet.o
                0x000000000000af26                _ZN10W5100Class9writeSHAREPh
 .text._ZN10W5100Class9writeSIPREPh
                0x000000000000af52       0x2c ./arduinolib/Ethernet/Ethernet.o
                0x000000000000af52                _ZN10W5100Class9writeSIPREPh
 .text._ZN10W5100Class8readSIPREPh
                0x000000000000af7e       0x2c ./arduinolib/Ethernet/Ethernet.o
                0x000000000000af7e                _ZN10W5100Class8readSIPREPh
 .text._ZN10W5100Class12getGatewayIpEPh
                0x000000000000afaa       0x2a ./arduinolib/Ethernet/Ethernet.o
                0x000000000000afaa                _ZN10W5100Class12getGatewayIpEPh
 .text._ZN10W5100Class12setGatewayIpEPh
                0x000000000000afd4       0x2a ./arduinolib/Ethernet/Ethernet.o
                0x000000000000afd4                _ZN10W5100Class12setGatewayIpEPh
 .text._ZN10W5100Class13getSubnetMaskEPh
                0x000000000000affe       0x2a ./arduinolib/Ethernet/Ethernet.o
                0x000000000000affe                _ZN10W5100Class13getSubnetMaskEPh
 .text._ZN10W5100Class13setSubnetMaskEPh
                0x000000000000b028       0x2a ./arduinolib/Ethernet/Ethernet.o
                0x000000000000b028                _ZN10W5100Class13setSubnetMaskEPh
 .text._ZN10W5100Class13setMACAddressEPh
                0x000000000000b052       0x2a ./arduinolib/Ethernet/Ethernet.o
                0x000000000000b052                _ZN10W5100Class13setMACAddressEPh
 .text._ZN10W5100Class12getIPAddressEPh
                0x000000000000b07c       0x2a ./arduinolib/Ethernet/Ethernet.o
                0x000000000000b07c                _ZN10W5100Class12getIPAddressEPh
 .text._ZN10W5100Class12setIPAddressEPh
                0x000000000000b0a6       0x2a ./arduinolib/Ethernet/Ethernet.o
                0x000000000000b0a6                _ZN10W5100Class12setIPAddressEPh
 .text._ZN9IPAddress11raw_addressEv
                0x000000000000b0d0       0x20 ./arduinolib/Ethernet/Ethernet.o
 .text._ZN9IPAddressixEi
                0x000000000000b0f0       0x30 ./arduinolib/Ethernet/Ethernet.o
 .text._ZN9PrintableC2ERKS_
                0x000000000000b120       0x30 ./arduinolib/Ethernet/Ethernet.o
 .text._ZN9IPAddressC1ERKS_
                0x000000000000b150       0x5a ./arduinolib/Ethernet/Ethernet.o
 .text._ZN9DhcpClassC1Ev
                0x000000000000b1aa       0x24 ./arduinolib/Ethernet/Ethernet.o
                0x000000000000b1aa                _ZN9DhcpClassC1Ev
 .text._ZN9PrintableaSERKS_
                0x000000000000b1ce       0x26 ./arduinolib/Ethernet/Ethernet.o
 .text._ZN9IPAddressaSERKS_
                0x000000000000b1f4       0x50 ./arduinolib/Ethernet/Ethernet.o
 .text._ZN13EthernetClass5beginEPh
                0x000000000000b244      0x178 ./arduinolib/Ethernet/Ethernet.o
                0x000000000000b244                _ZN13EthernetClass5beginEPh
 .text._ZN13EthernetClass5beginEPh9IPAddress
                0x000000000000b3bc       0x8c ./arduinolib/Ethernet/Ethernet.o
                0x000000000000b3bc                _ZN13EthernetClass5beginEPh9IPAddress
 .text._ZN13EthernetClass5beginEPh9IPAddressS1_
                0x000000000000b448       0xa8 ./arduinolib/Ethernet/Ethernet.o
                0x000000000000b448                _ZN13EthernetClass5beginEPh9IPAddressS1_
 .text._ZN13EthernetClass5beginEPh9IPAddressS1_S1_
                0x000000000000b4f0       0xb8 ./arduinolib/Ethernet/Ethernet.o
                0x000000000000b4f0                _ZN13EthernetClass5beginEPh9IPAddressS1_S1_
 .text._ZN13EthernetClass5beginEPh9IPAddressS1_S1_S1_
                0x000000000000b5a8       0xae ./arduinolib/Ethernet/Ethernet.o
                0x000000000000b5a8                _ZN13EthernetClass5beginEPh9IPAddressS1_S1_S1_
 .text._ZN13EthernetClass7localIPEv
                0x000000000000b656       0x50 ./arduinolib/Ethernet/Ethernet.o
                0x000000000000b656                _ZN13EthernetClass7localIPEv
 .text._ZN13EthernetClass10subnetMaskEv
                0x000000000000b6a6       0x50 ./arduinolib/Ethernet/Ethernet.o
                0x000000000000b6a6                _ZN13EthernetClass10subnetMaskEv
 .text._ZN13EthernetClass9gatewayIPEv
                0x000000000000b6f6       0x50 ./arduinolib/Ethernet/Ethernet.o
                0x000000000000b6f6                _ZN13EthernetClass9gatewayIPEv
 .text._ZN13EthernetClass11dnsServerIPEv
                0x000000000000b746       0x34 ./arduinolib/Ethernet/Ethernet.o
                0x000000000000b746                _ZN13EthernetClass11dnsServerIPEv
 .text._ZN13EthernetClassC1Ev
                0x000000000000b77a       0x22 ./arduinolib/Ethernet/Ethernet.o
                0x000000000000b77a                _ZN13EthernetClassC1Ev
 .text._Z41__static_initialization_and_destruction_0ii
                0x000000000000b79c       0x54 ./arduinolib/Ethernet/Ethernet.o
 .text._GLOBAL__I__ZN13EthernetClass6_stateE
                0x000000000000b7f0       0x1a ./arduinolib/Ethernet/Ethernet.o
 .text._ZN5Print13setWriteErrorEi
                0x000000000000b80a       0x30 ./arduinolib/Ethernet/EthernetClient.o
 .text._ZN5PrintC2Ev
                0x000000000000b83a       0x32 ./arduinolib/Ethernet/EthernetClient.o
 .text._ZN6StreamC2Ev
                0x000000000000b86c       0x46 ./arduinolib/Ethernet/EthernetClient.o
 .text._ZN10W5100Class8readSnSREh
                0x000000000000b8b2       0x1e ./arduinolib/Ethernet/EthernetClient.o
 .text._ZN10W5100Class6readSnEhj
                0x000000000000b8d0       0x34 ./arduinolib/Ethernet/EthernetClient.o
 .text._ZN9IPAddress11raw_addressEv
                0x000000000000b904       0x20 ./arduinolib/Ethernet/EthernetClient.o
 .text._ZN6Client12rawIPAddressER9IPAddress
                0x000000000000b924       0x2a ./arduinolib/Ethernet/EthernetClient.o
                0x000000000000b924                _ZN6Client12rawIPAddressER9IPAddress
 .text._ZN9PrintableC2ERKS_
                0x000000000000b94e       0x30 ./arduinolib/Ethernet/EthernetClient.o
 .text._ZN9IPAddressC1ERKS_
                0x000000000000b97e       0x5a ./arduinolib/Ethernet/EthernetClient.o
 .text._ZN6ClientC2Ev
                0x000000000000b9d8       0x30 ./arduinolib/Ethernet/EthernetClient.o
                0x000000000000b9d8                _ZN6ClientC2Ev
 .text._ZN14EthernetClientC2Ev
                0x000000000000ba08       0x3a ./arduinolib/Ethernet/EthernetClient.o
                0x000000000000ba08                _ZN14EthernetClientC1Ev
                0x000000000000ba08                _ZN14EthernetClientC2Ev
 .text._ZN14EthernetClientC2Eh
                0x000000000000ba42       0x3c ./arduinolib/Ethernet/EthernetClient.o
                0x000000000000ba42                _ZN14EthernetClientC2Eh
                0x000000000000ba42                _ZN14EthernetClientC1Eh
 .text._ZN9DNSClientC1Ev
                0x000000000000ba7e       0x2c ./arduinolib/Ethernet/EthernetClient.o
                0x000000000000ba7e                _ZN9DNSClientC1Ev
 .text._ZN14EthernetClient7connectEPKcj
                0x000000000000baaa       0xce ./arduinolib/Ethernet/EthernetClient.o
                0x000000000000baaa                _ZN14EthernetClient7connectEPKcj
 .text._ZN14EthernetClient7connectE9IPAddressj
                0x000000000000bb78      0x172 ./arduinolib/Ethernet/EthernetClient.o
                0x000000000000bb78                _ZN14EthernetClient7connectE9IPAddressj
 .text._ZN14EthernetClient5writeEh
                0x000000000000bcea       0x42 ./arduinolib/Ethernet/EthernetClient.o
                0x000000000000bcea                _ZN14EthernetClient5writeEh
 .text._ZN14EthernetClient5writeEPKhj
                0x000000000000bd2c       0x82 ./arduinolib/Ethernet/EthernetClient.o
                0x000000000000bd2c                _ZN14EthernetClient5writeEPKhj
 .text._ZN14EthernetClient9availableEv
                0x000000000000bdae       0x3e ./arduinolib/Ethernet/EthernetClient.o
                0x000000000000bdae                _ZN14EthernetClient9availableEv
 .text._ZN14EthernetClient4readEv
                0x000000000000bdec       0x4a ./arduinolib/Ethernet/EthernetClient.o
                0x000000000000bdec                _ZN14EthernetClient4readEv
 .text._ZN14EthernetClient4readEPhj
                0x000000000000be36       0x42 ./arduinolib/Ethernet/EthernetClient.o
                0x000000000000be36                _ZN14EthernetClient4readEPhj
 .text._ZN14EthernetClient4peekEv
                0x000000000000be78       0x60 ./arduinolib/Ethernet/EthernetClient.o
                0x000000000000be78                _ZN14EthernetClient4peekEv
 .text._ZN14EthernetClient5flushEv
                0x000000000000bed8       0x5c ./arduinolib/Ethernet/EthernetClient.o
                0x000000000000bed8                _ZN14EthernetClient5flushEv
 .text._ZN14EthernetClient4stopEv
                0x000000000000bf34       0xfa ./arduinolib/Ethernet/EthernetClient.o
                0x000000000000bf34                _ZN14EthernetClient4stopEv
 .text._ZN14EthernetClient9connectedEv
                0x000000000000c02e       0x70 ./arduinolib/Ethernet/EthernetClient.o
                0x000000000000c02e                _ZN14EthernetClient9connectedEv
 .text._ZN14EthernetClient6statusEv
                0x000000000000c09e       0x36 ./arduinolib/Ethernet/EthernetClient.o
                0x000000000000c09e                _ZN14EthernetClient6statusEv
 .text._ZN14EthernetClientcvbEv
                0x000000000000c0d4       0x2a ./arduinolib/Ethernet/EthernetClient.o
                0x000000000000c0d4                _ZN14EthernetClientcvbEv
 .text._Z41__static_initialization_and_destruction_0ii
                0x000000000000c0fe       0x4c ./arduinolib/Ethernet/EthernetClient.o
 .text._GLOBAL__I__ZN14EthernetClient8_srcportE
                0x000000000000c14a       0x1a ./arduinolib/Ethernet/EthernetClient.o
 .text._ZN5PrintC2Ev
                0x000000000000c164       0x32 ./arduinolib/Ethernet/EthernetServer.o
 .text._ZN6ServerC2Ev
                0x000000000000c196       0x30 ./arduinolib/Ethernet/EthernetServer.o
                0x000000000000c196                _ZN6ServerC2Ev
 .text._ZN14EthernetServerC2Ej
                0x000000000000c1c6       0x46 ./arduinolib/Ethernet/EthernetServer.o
                0x000000000000c1c6                _ZN14EthernetServerC2Ej
                0x000000000000c1c6                _ZN14EthernetServerC1Ej
 .text._ZN14EthernetServer5beginEv
                0x000000000000c20c       0xaa ./arduinolib/Ethernet/EthernetServer.o
                0x000000000000c20c                _ZN14EthernetServer5beginEv
 .text._ZN14EthernetServer6acceptEv
                0x000000000000c2b6       0xec ./arduinolib/Ethernet/EthernetServer.o
                0x000000000000c2b6                _ZN14EthernetServer6acceptEv
 .text._ZN5PrintC2ERKS_
                0x000000000000c3a2       0x44 ./arduinolib/Ethernet/EthernetServer.o
                0x000000000000c3a2                _ZN5PrintC2ERKS_
 .text._ZN6StreamC2ERKS_
                0x000000000000c3e6       0x76 ./arduinolib/Ethernet/EthernetServer.o
                0x000000000000c3e6                _ZN6StreamC2ERKS_
 .text._ZN6ClientC2ERKS_
                0x000000000000c45c       0x3e ./arduinolib/Ethernet/EthernetServer.o
                0x000000000000c45c                _ZN6ClientC2ERKS_
 .text._ZN14EthernetClientC1ERKS_
                0x000000000000c49a       0x4e ./arduinolib/Ethernet/EthernetServer.o
                0x000000000000c49a                _ZN14EthernetClientC1ERKS_
 .text._ZN14EthernetServer9availableEv
                0x000000000000c4e8       0xe0 ./arduinolib/Ethernet/EthernetServer.o
                0x000000000000c4e8                _ZN14EthernetServer9availableEv
 .text._ZN14EthernetServer5writeEh
                0x000000000000c5c8       0x42 ./arduinolib/Ethernet/EthernetServer.o
                0x000000000000c5c8                _ZN14EthernetServer5writeEh
 .text._ZN14EthernetServer5writeEPKhj
                0x000000000000c60a       0xca ./arduinolib/Ethernet/EthernetServer.o
                0x000000000000c60a                _ZN14EthernetServer5writeEPKhj
 .text._Z41__static_initialization_and_destruction_0ii
                0x000000000000c6d4       0x4c ./arduinolib/Ethernet/EthernetServer.o
 .text._GLOBAL__I__ZN14EthernetServerC2Ej
                0x000000000000c720       0x1a ./arduinolib/Ethernet/EthernetServer.o
 .text._ZN5PrintC2Ev
                0x000000000000c73a       0x32 ./arduinolib/Ethernet/EthernetUdp.o
 .text._ZN6StreamC2Ev
                0x000000000000c76c       0x46 ./arduinolib/Ethernet/EthernetUdp.o
 .text._ZN10W5100Class8readSnSREh
                0x000000000000c7b2       0x1e ./arduinolib/Ethernet/EthernetUdp.o
 .text._ZN10W5100Class6readSnEhj
                0x000000000000c7d0       0x34 ./arduinolib/Ethernet/EthernetUdp.o
 .text._ZN9IPAddress11raw_addressEv
                0x000000000000c804       0x20 ./arduinolib/Ethernet/EthernetUdp.o
 .text._ZN3UDP12rawIPAddressER9IPAddress
                0x000000000000c824       0x2a ./arduinolib/Ethernet/EthernetUdp.o
                0x000000000000c824                _ZN3UDP12rawIPAddressER9IPAddress
 .text._ZN11EthernetUDP4readEPcj
                0x000000000000c84e       0x4c ./arduinolib/Ethernet/EthernetUdp.o
                0x000000000000c84e                _ZN11EthernetUDP4readEPcj
 .text._ZN9PrintableC2ERKS_
                0x000000000000c89a       0x30 ./arduinolib/Ethernet/EthernetUdp.o
 .text._ZN9IPAddressC1ERKS_
                0x000000000000c8ca       0x5a ./arduinolib/Ethernet/EthernetUdp.o
 .text._ZN11EthernetUDP8remoteIPEv
                0x000000000000c924       0x38 ./arduinolib/Ethernet/EthernetUdp.o
 .text._ZN11EthernetUDP10remotePortEv
                0x000000000000c95c       0x24 ./arduinolib/Ethernet/EthernetUdp.o
 .text._ZN3UDPC2Ev
                0x000000000000c980       0x30 ./arduinolib/Ethernet/EthernetUdp.o
                0x000000000000c980                _ZN3UDPC2Ev
 .text._ZN11EthernetUDPC2Ev
                0x000000000000c9b0       0x44 ./arduinolib/Ethernet/EthernetUdp.o
                0x000000000000c9b0                _ZN11EthernetUDPC2Ev
                0x000000000000c9b0                _ZN11EthernetUDPC1Ev
 .text._ZN11EthernetUDP5beginEj
                0x000000000000c9f4       0xbe ./arduinolib/Ethernet/EthernetUdp.o
                0x000000000000c9f4                _ZN11EthernetUDP5beginEj
 .text._ZN11EthernetUDP9availableEv
                0x000000000000cab2       0x2c ./arduinolib/Ethernet/EthernetUdp.o
                0x000000000000cab2                _ZN11EthernetUDP9availableEv
 .text._ZN11EthernetUDP4stopEv
                0x000000000000cade       0x5a ./arduinolib/Ethernet/EthernetUdp.o
                0x000000000000cade                _ZN11EthernetUDP4stopEv
 .text._ZN9DNSClientC1Ev
                0x000000000000cb38       0x2c ./arduinolib/Ethernet/EthernetUdp.o
 .text._ZN11EthernetUDP11beginPacketEPKcj
                0x000000000000cb64       0xce ./arduinolib/Ethernet/EthernetUdp.o
                0x000000000000cb64                _ZN11EthernetUDP11beginPacketEPKcj
 .text._ZN11EthernetUDP11beginPacketE9IPAddressj
                0x000000000000cc32       0x5e ./arduinolib/Ethernet/EthernetUdp.o
                0x000000000000cc32                _ZN11EthernetUDP11beginPacketE9IPAddressj
 .text._ZN11EthernetUDP9endPacketEv
                0x000000000000cc90       0x26 ./arduinolib/Ethernet/EthernetUdp.o
                0x000000000000cc90                _ZN11EthernetUDP9endPacketEv
 .text._ZN11EthernetUDP5writeEh
                0x000000000000ccb6       0x42 ./arduinolib/Ethernet/EthernetUdp.o
                0x000000000000ccb6                _ZN11EthernetUDP5writeEh
 .text._ZN11EthernetUDP5writeEPKhj
                0x000000000000ccf8       0x80 ./arduinolib/Ethernet/EthernetUdp.o
                0x000000000000ccf8                _ZN11EthernetUDP5writeEPKhj
 .text._ZN11EthernetUDP11parsePacketEv
                0x000000000000cd78       0xea ./arduinolib/Ethernet/EthernetUdp.o
                0x000000000000cd78                _ZN11EthernetUDP11parsePacketEv
 .text._ZN11EthernetUDP4readEv
                0x000000000000ce62       0x4a ./arduinolib/Ethernet/EthernetUdp.o
                0x000000000000ce62                _ZN11EthernetUDP4readEv
 .text._ZN11EthernetUDP4readEPhj
                0x000000000000ceac       0x42 ./arduinolib/Ethernet/EthernetUdp.o
                0x000000000000ceac                _ZN11EthernetUDP4readEPhj
 .text._ZN11EthernetUDP4peekEv
                0x000000000000ceee       0x60 ./arduinolib/Ethernet/EthernetUdp.o
                0x000000000000ceee                _ZN11EthernetUDP4peekEv
 .text._ZN11EthernetUDP5flushEv
                0x000000000000cf4e       0x5c ./arduinolib/Ethernet/EthernetUdp.o
                0x000000000000cf4e                _ZN11EthernetUDP5flushEv
 .text._Z41__static_initialization_and_destruction_0ii
                0x000000000000cfaa       0x4c ./arduinolib/Ethernet/EthernetUdp.o
 .text._GLOBAL__I__ZN11EthernetUDPC2Ev
                0x000000000000cff6       0x1a ./arduinolib/Ethernet/EthernetUdp.o
 .text._ZN11EEPROMClass4readEi
                0x000000000000d010       0x2a ./arduinolib/EEPROM/EEPROM.o
                0x000000000000d010                _ZN11EEPROMClass4readEi
 .text._ZN11EEPROMClass5writeEih
                0x000000000000d03a       0x32 ./arduinolib/EEPROM/EEPROM.o
                0x000000000000d03a                _ZN11EEPROMClass5writeEih
 .text._ZN14HardwareSerial9availableEv
                0x000000000000d06c       0x26 /storage/apps/eclipse-avr/workspace/ArduinoCore-1.0/Mega2560/libArduinoCore-1.0.a(HardwareSerial.o)
                0x000000000000d06c                _ZN14HardwareSerial9availableEv
 .text._ZN14HardwareSerial4peekEv
                0x000000000000d092       0x38 /storage/apps/eclipse-avr/workspace/ArduinoCore-1.0/Mega2560/libArduinoCore-1.0.a(HardwareSerial.o)
                0x000000000000d092                _ZN14HardwareSerial4peekEv
 .text._ZN14HardwareSerial4readEv
                0x000000000000d0ca       0x44 /storage/apps/eclipse-avr/workspace/ArduinoCore-1.0/Mega2560/libArduinoCore-1.0.a(HardwareSerial.o)
                0x000000000000d0ca                _ZN14HardwareSerial4readEv
 .text._ZN14HardwareSerial5flushEv
                0x000000000000d10e       0x28 /storage/apps/eclipse-avr/workspace/ArduinoCore-1.0/Mega2560/libArduinoCore-1.0.a(HardwareSerial.o)
                0x000000000000d10e                _ZN14HardwareSerial5flushEv
 .text._ZN14HardwareSerial5writeEh
                0x000000000000d136       0x72 /storage/apps/eclipse-avr/workspace/ArduinoCore-1.0/Mega2560/libArduinoCore-1.0.a(HardwareSerial.o)
                0x000000000000d136                _ZN14HardwareSerial5writeEh
 .text._Z10store_charhP11ring_buffer
                0x000000000000d1a8       0x34 /storage/apps/eclipse-avr/workspace/ArduinoCore-1.0/Mega2560/libArduinoCore-1.0.a(HardwareSerial.o)
                0x000000000000d1a8                _Z10store_charhP11ring_buffer
 .text._Z11serialEventv
                0x000000000000d1dc        0x2 /storage/apps/eclipse-avr/workspace/ArduinoCore-1.0/Mega2560/libArduinoCore-1.0.a(HardwareSerial.o)
                0x000000000000d1dc                _Z11serialEventv
 .text.__vector_25
                0x000000000000d1de       0x58 /storage/apps/eclipse-avr/workspace/ArduinoCore-1.0/Mega2560/libArduinoCore-1.0.a(HardwareSerial.o)
                0x000000000000d1de                __vector_25
 .text._Z12serialEvent1v
                0x000000000000d236        0x2 /storage/apps/eclipse-avr/workspace/ArduinoCore-1.0/Mega2560/libArduinoCore-1.0.a(HardwareSerial.o)
                0x000000000000d236                _Z12serialEvent1v
 .text.__vector_36
                0x000000000000d238       0x58 /storage/apps/eclipse-avr/workspace/ArduinoCore-1.0/Mega2560/libArduinoCore-1.0.a(HardwareSerial.o)
                0x000000000000d238                __vector_36
 .text._Z12serialEvent2v
                0x000000000000d290        0x2 /storage/apps/eclipse-avr/workspace/ArduinoCore-1.0/Mega2560/libArduinoCore-1.0.a(HardwareSerial.o)
                0x000000000000d290                _Z12serialEvent2v
 .text.__vector_51
                0x000000000000d292       0x58 /storage/apps/eclipse-avr/workspace/ArduinoCore-1.0/Mega2560/libArduinoCore-1.0.a(HardwareSerial.o)
                0x000000000000d292                __vector_51
 .text._Z12serialEvent3v
                0x000000000000d2ea        0x2 /storage/apps/eclipse-avr/workspace/ArduinoCore-1.0/Mega2560/libArduinoCore-1.0.a(HardwareSerial.o)
                0x000000000000d2ea                _Z12serialEvent3v
 .text.__vector_54
                0x000000000000d2ec       0x58 /storage/apps/eclipse-avr/workspace/ArduinoCore-1.0/Mega2560/libArduinoCore-1.0.a(HardwareSerial.o)
                0x000000000000d2ec                __vector_54
 .text._Z14serialEventRunv
                0x000000000000d344       0x42 /storage/apps/eclipse-avr/workspace/ArduinoCore-1.0/Mega2560/libArduinoCore-1.0.a(HardwareSerial.o)
                0x000000000000d344                _Z14serialEventRunv
 .text.__vector_26
                0x000000000000d386       0x96 /storage/apps/eclipse-avr/workspace/ArduinoCore-1.0/Mega2560/libArduinoCore-1.0.a(HardwareSerial.o)
                0x000000000000d386                __vector_26
 .text.__vector_37
                0x000000000000d41c       0x96 /storage/apps/eclipse-avr/workspace/ArduinoCore-1.0/Mega2560/libArduinoCore-1.0.a(HardwareSerial.o)
                0x000000000000d41c                __vector_37
 .text.__vector_52
                0x000000000000d4b2       0x96 /storage/apps/eclipse-avr/workspace/ArduinoCore-1.0/Mega2560/libArduinoCore-1.0.a(HardwareSerial.o)
                0x000000000000d4b2                __vector_52
 .text.__vector_55
                0x000000000000d548       0x96 /storage/apps/eclipse-avr/workspace/ArduinoCore-1.0/Mega2560/libArduinoCore-1.0.a(HardwareSerial.o)
                0x000000000000d548                __vector_55
 .text._ZN14HardwareSerialC2EP11ring_bufferS1_PVhS3_S3_S3_S3_hhhhh
                0x000000000000d5de       0x7e /storage/apps/eclipse-avr/workspace/ArduinoCore-1.0/Mega2560/libArduinoCore-1.0.a(HardwareSerial.o)
                0x000000000000d5de                _ZN14HardwareSerialC2EP11ring_bufferS1_PVhS3_S3_S3_S3_hhhhh
                0x000000000000d5de                _ZN14HardwareSerialC1EP11ring_bufferS1_PVhS3_S3_S3_S3_hhhhh
 .text._ZN14HardwareSerial5beginEm
                0x000000000000d65c      0x11e /storage/apps/eclipse-avr/workspace/ArduinoCore-1.0/Mega2560/libArduinoCore-1.0.a(HardwareSerial.o)
                0x000000000000d65c                _ZN14HardwareSerial5beginEm
 .text._ZN14HardwareSerial3endEv
                0x000000000000d77a       0xae /storage/apps/eclipse-avr/workspace/ArduinoCore-1.0/Mega2560/libArduinoCore-1.0.a(HardwareSerial.o)
                0x000000000000d77a                _ZN14HardwareSerial3endEv
 .text._GLOBAL__I_rx_buffer
                0x000000000000d828      0x1ac /storage/apps/eclipse-avr/workspace/ArduinoCore-1.0/Mega2560/libArduinoCore-1.0.a(HardwareSerial.o)
 .text._ZNK9IPAddress7printToER5Print
                0x000000000000d9d4       0x86 /storage/apps/eclipse-avr/workspace/ArduinoCore-1.0/Mega2560/libArduinoCore-1.0.a(IPAddress.o)
                0x000000000000d9d4                _ZNK9IPAddress7printToER5Print
 .text._ZN9IPAddressC2Ev
                0x000000000000da5a       0x14 /storage/apps/eclipse-avr/workspace/ArduinoCore-1.0/Mega2560/libArduinoCore-1.0.a(IPAddress.o)
                0x000000000000da5a                _ZN9IPAddressC2Ev
                0x000000000000da5a                _ZN9IPAddressC1Ev
 .text._ZN9IPAddressC2Ehhhh
                0x000000000000da6e       0x18 /storage/apps/eclipse-avr/workspace/ArduinoCore-1.0/Mega2560/libArduinoCore-1.0.a(IPAddress.o)
                0x000000000000da6e                _ZN9IPAddressC1Ehhhh
                0x000000000000da6e                _ZN9IPAddressC2Ehhhh
 .text._ZN9IPAddressC2Em
                0x000000000000da86       0x14 /storage/apps/eclipse-avr/workspace/ArduinoCore-1.0/Mega2560/libArduinoCore-1.0.a(IPAddress.o)
                0x000000000000da86                _ZN9IPAddressC2Em
                0x000000000000da86                _ZN9IPAddressC1Em
 .text._ZN9IPAddressC2EPKh
                0x000000000000da9a       0x20 /storage/apps/eclipse-avr/workspace/ArduinoCore-1.0/Mega2560/libArduinoCore-1.0.a(IPAddress.o)
                0x000000000000da9a                _ZN9IPAddressC1EPKh
                0x000000000000da9a                _ZN9IPAddressC2EPKh
 .text._ZN9IPAddressaSEPKh
                0x000000000000daba       0x20 /storage/apps/eclipse-avr/workspace/ArduinoCore-1.0/Mega2560/libArduinoCore-1.0.a(IPAddress.o)
                0x000000000000daba                _ZN9IPAddressaSEPKh
 .text._ZN9IPAddressaSEm
                0x000000000000dada        0xc /storage/apps/eclipse-avr/workspace/ArduinoCore-1.0/Mega2560/libArduinoCore-1.0.a(IPAddress.o)
                0x000000000000dada                _ZN9IPAddressaSEm
 .text._ZN9IPAddresseqEPKh
                0x000000000000dae6       0x20 /storage/apps/eclipse-avr/workspace/ArduinoCore-1.0/Mega2560/libArduinoCore-1.0.a(IPAddress.o)
                0x000000000000dae6                _ZN9IPAddresseqEPKh
 .text._GLOBAL__I__ZN9IPAddressC2Ev
                0x000000000000db06       0x1e /storage/apps/eclipse-avr/workspace/ArduinoCore-1.0/Mega2560/libArduinoCore-1.0.a(IPAddress.o)
 .text._ZN5Print5writeEPKhj
                0x000000000000db24       0x54 /storage/apps/eclipse-avr/workspace/ArduinoCore-1.0/Mega2560/libArduinoCore-1.0.a(Print.o)
                0x000000000000db24                _ZN5Print5writeEPKhj
 .text._ZN5Print5writeEPKc
                0x000000000000db78       0x22 /storage/apps/eclipse-avr/workspace/ArduinoCore-1.0/Mega2560/libArduinoCore-1.0.a(Print.o)
                0x000000000000db78                _ZN5Print5writeEPKc
 .text._ZN5Print5printEPK19__FlashStringHelper
                0x000000000000db9a       0x46 /storage/apps/eclipse-avr/workspace/ArduinoCore-1.0/Mega2560/libArduinoCore-1.0.a(Print.o)
                0x000000000000db9a                _ZN5Print5printEPK19__FlashStringHelper
 .text._ZN5Print5printERK6String
                0x000000000000dbe0       0x66 /storage/apps/eclipse-avr/workspace/ArduinoCore-1.0/Mega2560/libArduinoCore-1.0.a(Print.o)
                0x000000000000dbe0                _ZN5Print5printERK6String
 .text._ZN5Print5printEPKc
                0x000000000000dc46        0x6 /storage/apps/eclipse-avr/workspace/ArduinoCore-1.0/Mega2560/libArduinoCore-1.0.a(Print.o)
                0x000000000000dc46                _ZN5Print5printEPKc
 .text._ZN5Print5printEc
                0x000000000000dc4c       0x10 /storage/apps/eclipse-avr/workspace/ArduinoCore-1.0/Mega2560/libArduinoCore-1.0.a(Print.o)
                0x000000000000dc4c                _ZN5Print5printEc
 .text._ZN5Print5printERK9Printable
                0x000000000000dc5c       0x16 /storage/apps/eclipse-avr/workspace/ArduinoCore-1.0/Mega2560/libArduinoCore-1.0.a(Print.o)
                0x000000000000dc5c                _ZN5Print5printERK9Printable
 .text._ZN5Print7printlnEv
                0x000000000000dc72       0x2a /storage/apps/eclipse-avr/workspace/ArduinoCore-1.0/Mega2560/libArduinoCore-1.0.a(Print.o)
                0x000000000000dc72                _ZN5Print7printlnEv
 .text._ZN5Print7printlnEPK19__FlashStringHelper
                0x000000000000dc9c       0x26 /storage/apps/eclipse-avr/workspace/ArduinoCore-1.0/Mega2560/libArduinoCore-1.0.a(Print.o)
                0x000000000000dc9c                _ZN5Print7printlnEPK19__FlashStringHelper
 .text._ZN5Print7printlnERK6String
                0x000000000000dcc2       0x26 /storage/apps/eclipse-avr/workspace/ArduinoCore-1.0/Mega2560/libArduinoCore-1.0.a(Print.o)
                0x000000000000dcc2                _ZN5Print7printlnERK6String
 .text._ZN5Print7printlnEPKc
                0x000000000000dce8       0x26 /storage/apps/eclipse-avr/workspace/ArduinoCore-1.0/Mega2560/libArduinoCore-1.0.a(Print.o)
                0x000000000000dce8                _ZN5Print7printlnEPKc
 .text._ZN5Print7printlnEc
                0x000000000000dd0e       0x26 /storage/apps/eclipse-avr/workspace/ArduinoCore-1.0/Mega2560/libArduinoCore-1.0.a(Print.o)
                0x000000000000dd0e                _ZN5Print7printlnEc
 .text._ZN5Print7printlnERK9Printable
                0x000000000000dd34       0x26 /storage/apps/eclipse-avr/workspace/ArduinoCore-1.0/Mega2560/libArduinoCore-1.0.a(Print.o)
                0x000000000000dd34                _ZN5Print7printlnERK9Printable
 .text._ZN5Print11printNumberEmh
                0x000000000000dd5a       0xb4 /storage/apps/eclipse-avr/workspace/ArduinoCore-1.0/Mega2560/libArduinoCore-1.0.a(Print.o)
                0x000000000000dd5a                _ZN5Print11printNumberEmh
 .text._ZN5Print5printEmi
                0x000000000000de0e       0x1e /storage/apps/eclipse-avr/workspace/ArduinoCore-1.0/Mega2560/libArduinoCore-1.0.a(Print.o)
                0x000000000000de0e                _ZN5Print5printEmi
 .text._ZN5Print7printlnEmi
                0x000000000000de2c       0x26 /storage/apps/eclipse-avr/workspace/ArduinoCore-1.0/Mega2560/libArduinoCore-1.0.a(Print.o)
                0x000000000000de2c                _ZN5Print7printlnEmi
 .text._ZN5Print5printEji
                0x000000000000de52        0xe /storage/apps/eclipse-avr/workspace/ArduinoCore-1.0/Mega2560/libArduinoCore-1.0.a(Print.o)
                0x000000000000de52                _ZN5Print5printEji
 .text._ZN5Print7printlnEji
                0x000000000000de60       0x2e /storage/apps/eclipse-avr/workspace/ArduinoCore-1.0/Mega2560/libArduinoCore-1.0.a(Print.o)
                0x000000000000de60                _ZN5Print7printlnEji
 .text._ZN5Print5printEhi
                0x000000000000de8e       0x10 /storage/apps/eclipse-avr/workspace/ArduinoCore-1.0/Mega2560/libArduinoCore-1.0.a(Print.o)
                0x000000000000de8e                _ZN5Print5printEhi
 .text._ZN5Print7printlnEhi
                0x000000000000de9e       0x30 /storage/apps/eclipse-avr/workspace/ArduinoCore-1.0/Mega2560/libArduinoCore-1.0.a(Print.o)
                0x000000000000de9e                _ZN5Print7printlnEhi
 .text._ZN5Print5printEli
                0x000000000000dece       0x76 /storage/apps/eclipse-avr/workspace/ArduinoCore-1.0/Mega2560/libArduinoCore-1.0.a(Print.o)
                0x000000000000dece                _ZN5Print5printEli
 .text._ZN5Print7printlnEli
                0x000000000000df44       0x26 /storage/apps/eclipse-avr/workspace/ArduinoCore-1.0/Mega2560/libArduinoCore-1.0.a(Print.o)
                0x000000000000df44                _ZN5Print7printlnEli
 .text._ZN5Print5printEii
                0x000000000000df6a       0x14 /storage/apps/eclipse-avr/workspace/ArduinoCore-1.0/Mega2560/libArduinoCore-1.0.a(Print.o)
                0x000000000000df6a                _ZN5Print5printEii
 .text._ZN5Print7printlnEii
                0x000000000000df7e       0x36 /storage/apps/eclipse-avr/workspace/ArduinoCore-1.0/Mega2560/libArduinoCore-1.0.a(Print.o)
                0x000000000000df7e                _ZN5Print7printlnEii
 .text._ZN5Print10printFloatEdh
                0x000000000000dfb4      0x16c /storage/apps/eclipse-avr/workspace/ArduinoCore-1.0/Mega2560/libArduinoCore-1.0.a(Print.o)
                0x000000000000dfb4                _ZN5Print10printFloatEdh
 .text._ZN5Print5printEdi
                0x000000000000e120        0x6 /storage/apps/eclipse-avr/workspace/ArduinoCore-1.0/Mega2560/libArduinoCore-1.0.a(Print.o)
                0x000000000000e120                _ZN5Print5printEdi
 .text._ZN5Print7printlnEdi
                0x000000000000e126       0x26 /storage/apps/eclipse-avr/workspace/ArduinoCore-1.0/Mega2560/libArduinoCore-1.0.a(Print.o)
                0x000000000000e126                _ZN5Print7printlnEdi
 .text._Z10randomSeedj
                0x000000000000e14c       0x10 /storage/apps/eclipse-avr/workspace/ArduinoCore-1.0/Mega2560/libArduinoCore-1.0.a(WMath.o)
                0x000000000000e14c                _Z10randomSeedj
 .text._Z6randoml
                0x000000000000e15c       0x3c /storage/apps/eclipse-avr/workspace/ArduinoCore-1.0/Mega2560/libArduinoCore-1.0.a(WMath.o)
                0x000000000000e15c                _Z6randoml
 .text._Z6randomll
                0x000000000000e198       0x3c /storage/apps/eclipse-avr/workspace/ArduinoCore-1.0/Mega2560/libArduinoCore-1.0.a(WMath.o)
                0x000000000000e198                _Z6randomll
 .text._Z3maplllll
                0x000000000000e1d4       0x92 /storage/apps/eclipse-avr/workspace/ArduinoCore-1.0/Mega2560/libArduinoCore-1.0.a(WMath.o)
                0x000000000000e1d4                _Z3maplllll
 .text._Z8makeWordj
                0x000000000000e266        0x2 /storage/apps/eclipse-avr/workspace/ArduinoCore-1.0/Mega2560/libArduinoCore-1.0.a(WMath.o)
                0x000000000000e266                _Z8makeWordj
 .text._Z8makeWordhh
                0x000000000000e268        0xe /storage/apps/eclipse-avr/workspace/ArduinoCore-1.0/Mega2560/libArduinoCore-1.0.a(WMath.o)
                0x000000000000e268                _Z8makeWordhh
 .text._ZN6StringD2Ev
                0x000000000000e276        0xc /storage/apps/eclipse-avr/workspace/ArduinoCore-1.0/Mega2560/libArduinoCore-1.0.a(WString.o)
                0x000000000000e276                _ZN6StringD1Ev
                0x000000000000e276                _ZN6StringD2Ev
 .text._ZN6String10invalidateEv
                0x000000000000e282       0x24 /storage/apps/eclipse-avr/workspace/ArduinoCore-1.0/Mega2560/libArduinoCore-1.0.a(WString.o)
                0x000000000000e282                _ZN6String10invalidateEv
 .text._ZN6String12changeBufferEj
                0x000000000000e2a6       0x34 /storage/apps/eclipse-avr/workspace/ArduinoCore-1.0/Mega2560/libArduinoCore-1.0.a(WString.o)
                0x000000000000e2a6                _ZN6String12changeBufferEj
 .text._ZN6String7reserveEj
                0x000000000000e2da       0x3e /storage/apps/eclipse-avr/workspace/ArduinoCore-1.0/Mega2560/libArduinoCore-1.0.a(WString.o)
                0x000000000000e2da                _ZN6String7reserveEj
 .text._ZN6String4copyEPKcj
                0x000000000000e318       0x42 /storage/apps/eclipse-avr/workspace/ArduinoCore-1.0/Mega2560/libArduinoCore-1.0.a(WString.o)
                0x000000000000e318                _ZN6String4copyEPKcj
 .text._ZN6StringC2EPKc
                0x000000000000e35a       0x36 /storage/apps/eclipse-avr/workspace/ArduinoCore-1.0/Mega2560/libArduinoCore-1.0.a(WString.o)
                0x000000000000e35a                _ZN6StringC1EPKc
                0x000000000000e35a                _ZN6StringC2EPKc
 .text._ZN6StringaSERKS_
                0x000000000000e390       0x36 /storage/apps/eclipse-avr/workspace/ArduinoCore-1.0/Mega2560/libArduinoCore-1.0.a(WString.o)
                0x000000000000e390                _ZN6StringaSERKS_
 .text._ZN6StringC2ERKS_
                0x000000000000e3c6       0x16 /storage/apps/eclipse-avr/workspace/ArduinoCore-1.0/Mega2560/libArduinoCore-1.0.a(WString.o)
                0x000000000000e3c6                _ZN6StringC1ERKS_
                0x000000000000e3c6                _ZN6StringC2ERKS_
 .text._ZN6StringaSEPKc
                0x000000000000e3dc       0x30 /storage/apps/eclipse-avr/workspace/ArduinoCore-1.0/Mega2560/libArduinoCore-1.0.a(WString.o)
                0x000000000000e3dc                _ZN6StringaSEPKc
 .text._ZN6StringC2Emh
                0x000000000000e40c       0x62 /storage/apps/eclipse-avr/workspace/ArduinoCore-1.0/Mega2560/libArduinoCore-1.0.a(WString.o)
                0x000000000000e40c                _ZN6StringC2Emh
                0x000000000000e40c                _ZN6StringC1Emh
 .text._ZN6StringC2Elh
                0x000000000000e46e       0x62 /storage/apps/eclipse-avr/workspace/ArduinoCore-1.0/Mega2560/libArduinoCore-1.0.a(WString.o)
                0x000000000000e46e                _ZN6StringC1Elh
                0x000000000000e46e                _ZN6StringC2Elh
 .text._ZN6StringC2Ejh
                0x000000000000e4d0       0x60 /storage/apps/eclipse-avr/workspace/ArduinoCore-1.0/Mega2560/libArduinoCore-1.0.a(WString.o)
                0x000000000000e4d0                _ZN6StringC2Ejh
                0x000000000000e4d0                _ZN6StringC1Ejh
 .text._ZN6StringC2Eih
                0x000000000000e530       0x60 /storage/apps/eclipse-avr/workspace/ArduinoCore-1.0/Mega2560/libArduinoCore-1.0.a(WString.o)
                0x000000000000e530                _ZN6StringC1Eih
                0x000000000000e530                _ZN6StringC2Eih
 .text._ZN6StringC2Ehh
                0x000000000000e590       0x62 /storage/apps/eclipse-avr/workspace/ArduinoCore-1.0/Mega2560/libArduinoCore-1.0.a(WString.o)
                0x000000000000e590                _ZN6StringC1Ehh
                0x000000000000e590                _ZN6StringC2Ehh
 .text._ZN6StringC2Ec
                0x000000000000e5f2       0x34 /storage/apps/eclipse-avr/workspace/ArduinoCore-1.0/Mega2560/libArduinoCore-1.0.a(WString.o)
                0x000000000000e5f2                _ZN6StringC2Ec
                0x000000000000e5f2                _ZN6StringC1Ec
 .text._ZN6String6concatEPKcj
                0x000000000000e626       0x58 /storage/apps/eclipse-avr/workspace/ArduinoCore-1.0/Mega2560/libArduinoCore-1.0.a(WString.o)
                0x000000000000e626                _ZN6String6concatEPKcj
 .text._ZN6String6concatERKS_
                0x000000000000e67e       0x10 /storage/apps/eclipse-avr/workspace/ArduinoCore-1.0/Mega2560/libArduinoCore-1.0.a(WString.o)
                0x000000000000e67e                _ZN6String6concatERKS_
 .text._ZN6String6concatEPKc
                0x000000000000e68e       0x22 /storage/apps/eclipse-avr/workspace/ArduinoCore-1.0/Mega2560/libArduinoCore-1.0.a(WString.o)
                0x000000000000e68e                _ZN6String6concatEPKc
 .text._ZN6String6concatEc
                0x000000000000e6b0       0x28 /storage/apps/eclipse-avr/workspace/ArduinoCore-1.0/Mega2560/libArduinoCore-1.0.a(WString.o)
                0x000000000000e6b0                _ZN6String6concatEc
 .text._ZN6String6concatEh
                0x000000000000e6d8       0x5a /storage/apps/eclipse-avr/workspace/ArduinoCore-1.0/Mega2560/libArduinoCore-1.0.a(WString.o)
                0x000000000000e6d8                _ZN6String6concatEh
 .text._ZN6String6concatEi
                0x000000000000e732       0x64 /storage/apps/eclipse-avr/workspace/ArduinoCore-1.0/Mega2560/libArduinoCore-1.0.a(WString.o)
                0x000000000000e732                _ZN6String6concatEi
 .text._ZN6String6concatEj
                0x000000000000e796       0x5c /storage/apps/eclipse-avr/workspace/ArduinoCore-1.0/Mega2560/libArduinoCore-1.0.a(WString.o)
                0x000000000000e796                _ZN6String6concatEj
 .text._ZN6String6concatEl
                0x000000000000e7f2       0x66 /storage/apps/eclipse-avr/workspace/ArduinoCore-1.0/Mega2560/libArduinoCore-1.0.a(WString.o)
                0x000000000000e7f2                _ZN6String6concatEl
 .text._ZN6String6concatEm
                0x000000000000e858       0x66 /storage/apps/eclipse-avr/workspace/ArduinoCore-1.0/Mega2560/libArduinoCore-1.0.a(WString.o)
                0x000000000000e858                _ZN6String6concatEm
 .text._ZplRK15StringSumHelperRK6String
                0x000000000000e8be       0x26 /storage/apps/eclipse-avr/workspace/ArduinoCore-1.0/Mega2560/libArduinoCore-1.0.a(WString.o)
                0x000000000000e8be                _ZplRK15StringSumHelperRK6String
 .text._ZplRK15StringSumHelperPKc
                0x000000000000e8e4       0x34 /storage/apps/eclipse-avr/workspace/ArduinoCore-1.0/Mega2560/libArduinoCore-1.0.a(WString.o)
                0x000000000000e8e4                _ZplRK15StringSumHelperPKc
 .text._ZplRK15StringSumHelperc
                0x000000000000e918       0x1c /storage/apps/eclipse-avr/workspace/ArduinoCore-1.0/Mega2560/libArduinoCore-1.0.a(WString.o)
                0x000000000000e918                _ZplRK15StringSumHelperc
 .text._ZplRK15StringSumHelperh
                0x000000000000e934       0x1c /storage/apps/eclipse-avr/workspace/ArduinoCore-1.0/Mega2560/libArduinoCore-1.0.a(WString.o)
                0x000000000000e934                _ZplRK15StringSumHelperh
 .text._ZplRK15StringSumHelperi
                0x000000000000e950       0x1c /storage/apps/eclipse-avr/workspace/ArduinoCore-1.0/Mega2560/libArduinoCore-1.0.a(WString.o)
                0x000000000000e950                _ZplRK15StringSumHelperi
 .text._ZplRK15StringSumHelperj
                0x000000000000e96c       0x1c /storage/apps/eclipse-avr/workspace/ArduinoCore-1.0/Mega2560/libArduinoCore-1.0.a(WString.o)
                0x000000000000e96c                _ZplRK15StringSumHelperj
 .text._ZplRK15StringSumHelperl
                0x000000000000e988       0x1c /storage/apps/eclipse-avr/workspace/ArduinoCore-1.0/Mega2560/libArduinoCore-1.0.a(WString.o)
                0x000000000000e988                _ZplRK15StringSumHelperl
 .text._ZplRK15StringSumHelperm
                0x000000000000e9a4       0x1c /storage/apps/eclipse-avr/workspace/ArduinoCore-1.0/Mega2560/libArduinoCore-1.0.a(WString.o)
                0x000000000000e9a4                _ZplRK15StringSumHelperm
 .text._ZNK6String9compareToERKS_
                0x000000000000e9c0       0x6c /storage/apps/eclipse-avr/workspace/ArduinoCore-1.0/Mega2560/libArduinoCore-1.0.a(WString.o)
                0x000000000000e9c0                _ZNK6String9compareToERKS_
 .text._ZNK6String6equalsERKS_
                0x000000000000ea2c       0x22 /storage/apps/eclipse-avr/workspace/ArduinoCore-1.0/Mega2560/libArduinoCore-1.0.a(WString.o)
                0x000000000000ea2c                _ZNK6String6equalsERKS_
 .text._ZNK6String6equalsEPKc
                0x000000000000ea4e       0x46 /storage/apps/eclipse-avr/workspace/ArduinoCore-1.0/Mega2560/libArduinoCore-1.0.a(WString.o)
                0x000000000000ea4e                _ZNK6String6equalsEPKc
 .text._ZNK6StringltERKS_
                0x000000000000ea94        0xe /storage/apps/eclipse-avr/workspace/ArduinoCore-1.0/Mega2560/libArduinoCore-1.0.a(WString.o)
                0x000000000000ea94                _ZNK6StringltERKS_
 .text._ZNK6StringgtERKS_
                0x000000000000eaa2       0x12 /storage/apps/eclipse-avr/workspace/ArduinoCore-1.0/Mega2560/libArduinoCore-1.0.a(WString.o)
                0x000000000000eaa2                _ZNK6StringgtERKS_
 .text._ZNK6StringleERKS_
                0x000000000000eab4       0x12 /storage/apps/eclipse-avr/workspace/ArduinoCore-1.0/Mega2560/libArduinoCore-1.0.a(WString.o)
                0x000000000000eab4                _ZNK6StringleERKS_
 .text._ZNK6StringgeERKS_
                0x000000000000eac6       0x10 /storage/apps/eclipse-avr/workspace/ArduinoCore-1.0/Mega2560/libArduinoCore-1.0.a(WString.o)
                0x000000000000eac6                _ZNK6StringgeERKS_
 .text._ZNK6String16equalsIgnoreCaseERKS_
                0x000000000000ead6       0x74 /storage/apps/eclipse-avr/workspace/ArduinoCore-1.0/Mega2560/libArduinoCore-1.0.a(WString.o)
                0x000000000000ead6                _ZNK6String16equalsIgnoreCaseERKS_
 .text._ZNK6String10startsWithERKS_j
                0x000000000000eb4a       0x4c /storage/apps/eclipse-avr/workspace/ArduinoCore-1.0/Mega2560/libArduinoCore-1.0.a(WString.o)
                0x000000000000eb4a                _ZNK6String10startsWithERKS_j
 .text._ZNK6String10startsWithERKS_
                0x000000000000eb96       0x20 /storage/apps/eclipse-avr/workspace/ArduinoCore-1.0/Mega2560/libArduinoCore-1.0.a(WString.o)
                0x000000000000eb96                _ZNK6String10startsWithERKS_
 .text._ZNK6String8endsWithERKS_
                0x000000000000ebb6       0x4a /storage/apps/eclipse-avr/workspace/ArduinoCore-1.0/Mega2560/libArduinoCore-1.0.a(WString.o)
                0x000000000000ebb6                _ZNK6String8endsWithERKS_
 .text._ZN6String9setCharAtEjc
                0x000000000000ec00       0x1a /storage/apps/eclipse-avr/workspace/ArduinoCore-1.0/Mega2560/libArduinoCore-1.0.a(WString.o)
                0x000000000000ec00                _ZN6String9setCharAtEjc
 .text._ZN6StringixEj
                0x000000000000ec1a       0x26 /storage/apps/eclipse-avr/workspace/ArduinoCore-1.0/Mega2560/libArduinoCore-1.0.a(WString.o)
                0x000000000000ec1a                _ZN6StringixEj
 .text._ZNK6StringixEj
                0x000000000000ec40       0x26 /storage/apps/eclipse-avr/workspace/ArduinoCore-1.0/Mega2560/libArduinoCore-1.0.a(WString.o)
                0x000000000000ec40                _ZNK6StringixEj
 .text._ZNK6String6charAtEj
                0x000000000000ec66        0x6 /storage/apps/eclipse-avr/workspace/ArduinoCore-1.0/Mega2560/libArduinoCore-1.0.a(WString.o)
                0x000000000000ec66                _ZNK6String6charAtEj
 .text._ZNK6String8getBytesEPhjj
                0x000000000000ec6c       0x58 /storage/apps/eclipse-avr/workspace/ArduinoCore-1.0/Mega2560/libArduinoCore-1.0.a(WString.o)
                0x000000000000ec6c                _ZNK6String8getBytesEPhjj
 .text._ZNK6String7indexOfEcj
                0x000000000000ecc4       0x3c /storage/apps/eclipse-avr/workspace/ArduinoCore-1.0/Mega2560/libArduinoCore-1.0.a(WString.o)
                0x000000000000ecc4                _ZNK6String7indexOfEcj
 .text._ZNK6String7indexOfEc
                0x000000000000ed00        0xa /storage/apps/eclipse-avr/workspace/ArduinoCore-1.0/Mega2560/libArduinoCore-1.0.a(WString.o)
                0x000000000000ed00                _ZNK6String7indexOfEc
 .text._ZNK6String7indexOfERKS_j
                0x000000000000ed0a       0x3c /storage/apps/eclipse-avr/workspace/ArduinoCore-1.0/Mega2560/libArduinoCore-1.0.a(WString.o)
                0x000000000000ed0a                _ZNK6String7indexOfERKS_j
 .text._ZNK6String7indexOfERKS_
                0x000000000000ed46        0xa /storage/apps/eclipse-avr/workspace/ArduinoCore-1.0/Mega2560/libArduinoCore-1.0.a(WString.o)
                0x000000000000ed46                _ZNK6String7indexOfERKS_
 .text._ZNK6String11lastIndexOfEcj
                0x000000000000ed50       0x6e /storage/apps/eclipse-avr/workspace/ArduinoCore-1.0/Mega2560/libArduinoCore-1.0.a(WString.o)
                0x000000000000ed50                _ZNK6String11lastIndexOfEcj
 .text._ZNK6String11lastIndexOfEc
                0x000000000000edbe       0x10 /storage/apps/eclipse-avr/workspace/ArduinoCore-1.0/Mega2560/libArduinoCore-1.0.a(WString.o)
                0x000000000000edbe                _ZNK6String11lastIndexOfEc
 .text._ZNK6String11lastIndexOfERKS_j
                0x000000000000edce       0x9a /storage/apps/eclipse-avr/workspace/ArduinoCore-1.0/Mega2560/libArduinoCore-1.0.a(WString.o)
                0x000000000000edce                _ZNK6String11lastIndexOfERKS_j
 .text._ZNK6String11lastIndexOfERKS_
                0x000000000000ee68       0x16 /storage/apps/eclipse-avr/workspace/ArduinoCore-1.0/Mega2560/libArduinoCore-1.0.a(WString.o)
                0x000000000000ee68                _ZNK6String11lastIndexOfERKS_
 .text._ZNK6String9substringEjj
                0x000000000000ee7e       0xa2 /storage/apps/eclipse-avr/workspace/ArduinoCore-1.0/Mega2560/libArduinoCore-1.0.a(WString.o)
                0x000000000000ee7e                _ZNK6String9substringEjj
 .text._ZNK6String9substringEj
                0x000000000000ef20       0x18 /storage/apps/eclipse-avr/workspace/ArduinoCore-1.0/Mega2560/libArduinoCore-1.0.a(WString.o)
                0x000000000000ef20                _ZNK6String9substringEj
 .text._ZN6String7replaceEcc
                0x000000000000ef38       0x1e /storage/apps/eclipse-avr/workspace/ArduinoCore-1.0/Mega2560/libArduinoCore-1.0.a(WString.o)
                0x000000000000ef38                _ZN6String7replaceEcc
 .text._ZN6String7replaceERKS_S1_
                0x000000000000ef56      0x214 /storage/apps/eclipse-avr/workspace/ArduinoCore-1.0/Mega2560/libArduinoCore-1.0.a(WString.o)
                0x000000000000ef56                _ZN6String7replaceERKS_S1_
 .text._ZN6String11toLowerCaseEv
                0x000000000000f16a       0x28 /storage/apps/eclipse-avr/workspace/ArduinoCore-1.0/Mega2560/libArduinoCore-1.0.a(WString.o)
                0x000000000000f16a                _ZN6String11toLowerCaseEv
 .text._ZN6String11toUpperCaseEv
                0x000000000000f192       0x28 /storage/apps/eclipse-avr/workspace/ArduinoCore-1.0/Mega2560/libArduinoCore-1.0.a(WString.o)
                0x000000000000f192                _ZN6String11toUpperCaseEv
 .text._ZN6String4trimEv
                0x000000000000f1ba       0xc2 /storage/apps/eclipse-avr/workspace/ArduinoCore-1.0/Mega2560/libArduinoCore-1.0.a(WString.o)
                0x000000000000f1ba                _ZN6String4trimEv
 .text._ZNK6String5toIntEv
                0x000000000000f27c       0x20 /storage/apps/eclipse-avr/workspace/ArduinoCore-1.0/Mega2560/libArduinoCore-1.0.a(WString.o)
                0x000000000000f27c                _ZNK6String5toIntEv
 .text._Znwj    0x000000000000f29c        0x6 /storage/apps/eclipse-avr/workspace/ArduinoCore-1.0/Mega2560/libArduinoCore-1.0.a(new.o)
                0x000000000000f29c                _Znwj
 .text._ZdlPv   0x000000000000f2a2        0x6 /storage/apps/eclipse-avr/workspace/ArduinoCore-1.0/Mega2560/libArduinoCore-1.0.a(new.o)
                0x000000000000f2a2                _ZdlPv
 .text.__cxa_guard_acquire
                0x000000000000f2a8       0x14 /storage/apps/eclipse-avr/workspace/ArduinoCore-1.0/Mega2560/libArduinoCore-1.0.a(new.o)
                0x000000000000f2a8                __cxa_guard_acquire
 .text.__cxa_guard_release
                0x000000000000f2bc        0x8 /storage/apps/eclipse-avr/workspace/ArduinoCore-1.0/Mega2560/libArduinoCore-1.0.a(new.o)
                0x000000000000f2bc                __cxa_guard_release
 .text.__cxa_guard_abort
                0x000000000000f2c4        0x2 /storage/apps/eclipse-avr/workspace/ArduinoCore-1.0/Mega2560/libArduinoCore-1.0.a(new.o)
                0x000000000000f2c4                __cxa_guard_abort
 .text.__cxa_pure_virtual
                0x000000000000f2c6        0x2 /storage/apps/eclipse-avr/workspace/ArduinoCore-1.0/Mega2560/libArduinoCore-1.0.a(new.o)
                0x000000000000f2c6                __cxa_pure_virtual
 .text.__vector_23
                0x000000000000f2c8       0xa8 /storage/apps/eclipse-avr/workspace/ArduinoCore-1.0/Mega2560/libArduinoCore-1.0.a(wiring.o)
                0x000000000000f2c8                __vector_23
 .text.millis   0x000000000000f370       0x1c /storage/apps/eclipse-avr/workspace/ArduinoCore-1.0/Mega2560/libArduinoCore-1.0.a(wiring.o)
                0x000000000000f370                millis
 .text.micros   0x000000000000f38c       0x4c /storage/apps/eclipse-avr/workspace/ArduinoCore-1.0/Mega2560/libArduinoCore-1.0.a(wiring.o)
                0x000000000000f38c                micros
 .text.delay    0x000000000000f3d8       0x4e /storage/apps/eclipse-avr/workspace/ArduinoCore-1.0/Mega2560/libArduinoCore-1.0.a(wiring.o)
                0x000000000000f3d8                delay
 .text.delayMicroseconds
                0x000000000000f426       0x14 /storage/apps/eclipse-avr/workspace/ArduinoCore-1.0/Mega2560/libArduinoCore-1.0.a(wiring.o)
                0x000000000000f426                delayMicroseconds
 .text.init     0x000000000000f43a       0xbe /storage/apps/eclipse-avr/workspace/ArduinoCore-1.0/Mega2560/libArduinoCore-1.0.a(wiring.o)
                0x000000000000f43a                init
 .text.analogReference
                0x000000000000f4f8        0x6 /storage/apps/eclipse-avr/workspace/ArduinoCore-1.0/Mega2560/libArduinoCore-1.0.a(wiring_analog.o)
                0x000000000000f4f8                analogReference
 .text.analogRead
                0x000000000000f4fe       0x66 /storage/apps/eclipse-avr/workspace/ArduinoCore-1.0/Mega2560/libArduinoCore-1.0.a(wiring_analog.o)
                0x000000000000f4fe                analogRead
 .text.analogWrite
                0x000000000000f564      0x1b6 /storage/apps/eclipse-avr/workspace/ArduinoCore-1.0/Mega2560/libArduinoCore-1.0.a(wiring_analog.o)
                0x000000000000f564                analogWrite
 .text.turnOffPWM
                0x000000000000f71a       0xe8 /storage/apps/eclipse-avr/workspace/ArduinoCore-1.0/Mega2560/libArduinoCore-1.0.a(wiring_digital.o)
 .text.pinMode  0x000000000000f802       0x48 /storage/apps/eclipse-avr/workspace/ArduinoCore-1.0/Mega2560/libArduinoCore-1.0.a(wiring_digital.o)
                0x000000000000f802                pinMode
 .text.digitalWrite
                0x000000000000f84a       0x70 /storage/apps/eclipse-avr/workspace/ArduinoCore-1.0/Mega2560/libArduinoCore-1.0.a(wiring_digital.o)
                0x000000000000f84a                digitalWrite
 .text.digitalRead
                0x000000000000f8ba       0x54 /storage/apps/eclipse-avr/workspace/ArduinoCore-1.0/Mega2560/libArduinoCore-1.0.a(wiring_digital.o)
                0x000000000000f8ba                digitalRead
 .text.libgcc   0x000000000000f90e       0x3e /usr/lib/gcc/avr/4.5.3/avr6/libgcc.a(_mulsi3.o)
                0x000000000000f90e                __mulsi3
 .text.libgcc   0x000000000000f94c       0x18 /usr/lib/gcc/avr/4.5.3/avr6/libgcc.a(_udivmodqi4.o)
                0x000000000000f94c                __udivmodqi4
 .text.libgcc   0x000000000000f964       0x28 /usr/lib/gcc/avr/4.5.3/avr6/libgcc.a(_udivmodhi4.o)
                0x000000000000f964                __udivmodhi4
 .text.libgcc   0x000000000000f98c       0x26 /usr/lib/gcc/avr/4.5.3/avr6/libgcc.a(_divmodhi4.o)
                0x000000000000f98c                __divmodhi4
                0x000000000000f98c                _div
 .text.libgcc   0x000000000000f9b2       0x44 /usr/lib/gcc/avr/4.5.3/avr6/libgcc.a(_udivmodsi4.o)
                0x000000000000f9b2                __udivmodsi4
 .text.libgcc   0x000000000000f9f6       0x36 /usr/lib/gcc/avr/4.5.3/avr6/libgcc.a(_divmodsi4.o)
                0x000000000000f9f6                __divmodsi4
 .text.libgcc   0x000000000000fa2c        0x0 /usr/lib/gcc/avr/4.5.3/avr6/libgcc.a(_exit.o)
 .text.libgcc   0x000000000000fa2c        0x0 /usr/lib/gcc/avr/4.5.3/avr6/libgcc.a(_copy_data.o)
 .text.libgcc   0x000000000000fa2c        0x0 /usr/lib/gcc/avr/4.5.3/avr6/libgcc.a(_clear_bss.o)
 .text.libgcc   0x000000000000fa2c        0x0 /usr/lib/gcc/avr/4.5.3/avr6/libgcc.a(_ctors.o)
 .text.libgcc   0x000000000000fa2c        0x0 /usr/lib/gcc/avr/4.5.3/avr6/libgcc.a(_dtors.o)
 .text.libgcc   0x000000000000fa2c       0x38 /usr/lib/gcc/avr/4.5.3/avr6/libgcc.a(_prologue.o)
                0x000000000000fa2c                __prologue_saves__
 .text.libgcc   0x000000000000fa64       0x36 /usr/lib/gcc/avr/4.5.3/avr6/libgcc.a(_epilogue.o)
                0x000000000000fa64                __epilogue_restores__
 .text.libgcc   0x000000000000fa9a        0x8 /usr/lib/gcc/avr/4.5.3/avr6/libgcc.a(_tablejump_elpm.o)
                0x000000000000fa9a                __tablejump_elpm__
 .text.avr-libc
                0x000000000000faa2       0x44 /usr/lib/gcc/avr/4.5.3/../../../avr/lib/avr6/libc.a(dtostrf.o)
                0x000000000000faa2                dtostrf
 .text.avr-libc
                0x000000000000fae6      0x266 /usr/lib/gcc/avr/4.5.3/../../../avr/lib/avr6/libc.a(malloc.o)
                0x000000000000fae6                malloc
                0x000000000000fc1a                free
 .text.avr-libc
                0x000000000000fd4c       0xbe /usr/lib/gcc/avr/4.5.3/../../../avr/lib/avr6/libc.a(random.o)
                0x000000000000fde8                random_r
                0x000000000000fdee                random
                0x000000000000fdf8                srandom
 .text.avr-libc
                0x000000000000fe0a      0x1b2 /usr/lib/gcc/avr/4.5.3/../../../avr/lib/avr6/libc.a(realloc.o)
                0x000000000000fe0a                realloc
 .text.avr-libc
                0x000000000000ffbc        0x8 /usr/lib/gcc/avr/4.5.3/../../../avr/lib/avr6/libc.a(atof.o)
                0x000000000000ffbc                atof
 .text.avr-libc
                0x000000000000ffc4       0x3c /usr/lib/gcc/avr/4.5.3/../../../avr/lib/avr6/libc.a(atoi.o)
                0x000000000000ffc4                atoi
 .text.avr-libc
                0x0000000000010000       0x4e /usr/lib/gcc/avr/4.5.3/../../../avr/lib/avr6/libc.a(atol.o)
                0x0000000000010000                atol
 .text.avr-libc
                0x000000000001004e       0x10 /usr/lib/gcc/avr/4.5.3/../../../avr/lib/avr6/libc.a(isspace.o)
                0x000000000001004e                isspace
 .text.avr-libc
                0x000000000001005e       0x10 /usr/lib/gcc/avr/4.5.3/../../../avr/lib/avr6/libc.a(tolower.o)
                0x000000000001005e                tolower
 .text.avr-libc
                0x000000000001006e       0x10 /usr/lib/gcc/avr/4.5.3/../../../avr/lib/avr6/libc.a(toupper.o)
                0x000000000001006e                toupper
 .text.avr-libc
                0x000000000001007e        0xa /usr/lib/gcc/avr/4.5.3/../../../avr/lib/avr6/libc.a(strtok.o)
                0x000000000001007e                strtok
 .text.avr-libc
                0x0000000000010088       0x1a /usr/lib/gcc/avr/4.5.3/../../../avr/lib/avr6/libc.a(memcmp.o)
                0x0000000000010088                memcmp
 .text.avr-libc
                0x00000000000100a2       0x12 /usr/lib/gcc/avr/4.5.3/../../../avr/lib/avr6/libc.a(memcpy.o)
                0x00000000000100a2                memcpy
 .text.avr-libc
                0x00000000000100b4       0x24 /usr/lib/gcc/avr/4.5.3/../../../avr/lib/avr6/libc.a(memmove.o)
                0x00000000000100b4                memmove
 .text.avr-libc
                0x00000000000100d8        0xe /usr/lib/gcc/avr/4.5.3/../../../avr/lib/avr6/libc.a(memset.o)
                0x00000000000100d8                memset
 .text.avr-libc
                0x00000000000100e6       0x16 /usr/lib/gcc/avr/4.5.3/../../../avr/lib/avr6/libc.a(strchr.o)
                0x00000000000100e6                strchr
 .text.avr-libc
                0x00000000000100fc       0x12 /usr/lib/gcc/avr/4.5.3/../../../avr/lib/avr6/libc.a(strcmp.o)
                0x00000000000100fc                strcmp
 .text.avr-libc
                0x000000000001010e        0xe /usr/lib/gcc/avr/4.5.3/../../../avr/lib/avr6/libc.a(strcpy.o)
                0x000000000001010e                strcpy
 .text.avr-libc
                0x000000000001011c       0x1c /usr/lib/gcc/avr/4.5.3/../../../avr/lib/avr6/libc.a(strncmp.o)
                0x000000000001011c                strncmp
 .text.avr-libc
                0x0000000000010138       0x1e /usr/lib/gcc/avr/4.5.3/../../../avr/lib/avr6/libc.a(strncpy.o)
                0x0000000000010138                strncpy
 .text.avr-libc
                0x0000000000010156       0x16 /usr/lib/gcc/avr/4.5.3/../../../avr/lib/avr6/libc.a(strrchr.o)
                0x0000000000010156                strrchr
 .text.avr-libc
                0x000000000001016c       0x34 /usr/lib/gcc/avr/4.5.3/../../../avr/lib/avr6/libc.a(strstr.o)
                0x000000000001016c                strstr
 .text.avr-libc
                0x00000000000101a0       0x4e /usr/lib/gcc/avr/4.5.3/../../../avr/lib/avr6/libc.a(strtok_r.o)
                0x00000000000101a0                strtok_r
 .text.avr-libc
                0x00000000000101ee       0x42 /usr/lib/gcc/avr/4.5.3/../../../avr/lib/avr6/libc.a(itoa.o)
                0x00000000000101ee                itoa
 .text.avr-libc
                0x0000000000010230       0x68 /usr/lib/gcc/avr/4.5.3/../../../avr/lib/avr6/libc.a(ltoa.o)
                0x0000000000010230                ltoa
 .text.avr-libc
                0x0000000000010298       0x2a /usr/lib/gcc/avr/4.5.3/../../../avr/lib/avr6/libc.a(mulsi10.o)
                0x0000000000010298                __mulsi_const_10
 .text.avr-libc
                0x00000000000102c2       0x10 /usr/lib/gcc/avr/4.5.3/../../../avr/lib/avr6/libc.a(mul10.o)
                0x00000000000102c2                __mulhi_const_10
 .text.avr-libc
                0x00000000000102d2       0x4a /usr/lib/gcc/avr/4.5.3/../../../avr/lib/avr6/libc.a(ultoa.o)
                0x00000000000102d2                ultoa
 .text.avr-libc
                0x000000000001031c       0x2c /usr/lib/gcc/avr/4.5.3/../../../avr/lib/avr6/libc.a(utoa.o)
                0x000000000001031c                utoa
 .text.avr-libc
                0x0000000000010348       0x60 /usr/lib/gcc/avr/4.5.3/../../../avr/lib/avr6/libc.a(sprintf.o)
                0x0000000000010348                sprintf
 .text.avr-libc
                0x00000000000103a8      0x420 /usr/lib/gcc/avr/4.5.3/../../../avr/lib/avr6/libc.a(vfprintf_std.o)
                0x00000000000103a8                vfprintf
 .text.avr-libc
                0x00000000000107c8       0x10 /usr/lib/gcc/avr/4.5.3/../../../avr/lib/avr6/libc.a(eerd_byte_atmega2560.o)
                0x00000000000107c8                __eerd_byte_m2560
 .text.avr-libc
                0x00000000000107d8       0x1c /usr/lib/gcc/avr/4.5.3/../../../avr/lib/avr6/libc.a(eewr_byte_atmega2560.o)
                0x00000000000107d8                __eewr_byte_m2560
                0x00000000000107da                __eewr_r18_m2560
 .text.avr-libc
                0x00000000000107f4      0x2e0 /usr/lib/gcc/avr/4.5.3/../../../avr/lib/avr6/libc.a(dtoa_prf.o)
                0x00000000000107f4                dtoa_prf
 .text.avr-libc
                0x0000000000010ad4      0x31c /usr/lib/gcc/avr/4.5.3/../../../avr/lib/avr6/libc.a(strtod.o)
                0x0000000000010ad4                strtod
 .text.avr-libc
                0x0000000000010df0      0x1b0 /usr/lib/gcc/avr/4.5.3/../../../avr/lib/avr6/libc.a(ftoa_engine.o)
                0x0000000000010df0                __ftoa_engine
 .text.avr-libc
                0x0000000000010fa0        0x6 /usr/lib/gcc/avr/4.5.3/../../../avr/lib/avr6/libc.a(cty_isfalse.o)
                0x0000000000010fa0                __ctype_isfalse
                0x0000000000010fa4                __ctype_istrue
 .text.avr-libc
                0x0000000000010fa6       0x30 /usr/lib/gcc/avr/4.5.3/../../../avr/lib/avr6/libc.a(strncasecmp_P.o)
                0x0000000000010fa6                strncasecmp_P
 .text.avr-libc
                0x0000000000010fd6       0x16 /usr/lib/gcc/avr/4.5.3/../../../avr/lib/avr6/libc.a(strnlen_P.o)
                0x0000000000010fd6                strnlen_P
 .text.avr-libc
                0x0000000000010fec       0x16 /usr/lib/gcc/avr/4.5.3/../../../avr/lib/avr6/libc.a(strnlen.o)
                0x0000000000010fec                strnlen
 .text.avr-libc
                0x0000000000011002       0x20 /usr/lib/gcc/avr/4.5.3/../../../avr/lib/avr6/libc.a(strrev.o)
                0x0000000000011002                strrev
 .text.avr-libc
                0x0000000000011022       0x58 /usr/lib/gcc/avr/4.5.3/../../../avr/lib/avr6/libc.a(fputc.o)
                0x0000000000011022                fputc
 .text.avr-libc
                0x000000000001107a       0xbc /usr/lib/gcc/avr/4.5.3/../../../avr/lib/avr6/libc.a(ultoa_invert.o)
                0x000000000001107a                __ultoa_invert
 .text.avr-libc.fplib
                0x0000000000011136        0x8 /usr/lib/gcc/avr/4.5.3/../../../avr/lib/avr6/libc.a(cmpsf2.o)
                0x0000000000011136                __lesf2
                0x0000000000011136                __nesf2
                0x0000000000011136                __eqsf2
                0x0000000000011136                __cmpsf2
 .text.avr-libc.fplib
                0x000000000001113e       0x48 /usr/lib/gcc/avr/4.5.3/../../../avr/lib/avr6/libc.a(fp_cmp.o)
                0x000000000001113e                __fp_cmp
                0x0000000000011186                . = ALIGN (0x2)
 *(.fini9)
 .fini9         0x0000000000011186        0x0 /usr/lib/gcc/avr/4.5.3/avr6/libgcc.a(_exit.o)
                0x0000000000011186                exit
                0x0000000000011186                _exit
 *(.fini9)
 *(.fini8)
 *(.fini8)
 *(.fini7)
 *(.fini7)
 *(.fini6)
 .fini6         0x0000000000011186       0x20 /usr/lib/gcc/avr/4.5.3/avr6/libgcc.a(_dtors.o)
                0x0000000000011186                __do_global_dtors
 *(.fini6)
 *(.fini5)
 *(.fini5)
 *(.fini4)
 *(.fini4)
 *(.fini3)
 *(.fini3)
 *(.fini2)
 *(.fini2)
 *(.fini1)
 *(.fini1)
 *(.fini0)
 .fini0         0x00000000000111a6        0x4 /usr/lib/gcc/avr/4.5.3/avr6/libgcc.a(_exit.o)
 *(.fini0)
                0x00000000000111aa                _etext = .

.data           0x0000000000800200      0x774 load address 0x00000000000111aa
                0x0000000000800200                PROVIDE (__data_start, .)
 *(.data)
 .data          0x0000000000800200        0x0 /usr/lib/gcc/avr/4.5.3/../../../avr/lib/avr6/crtm2560.o
 .data          0x0000000000800200        0x0 ./src/Config.o
 .data          0x0000000000800200        0x3 ./src/Gateway.o
 .data          0x0000000000800203        0x3 ./src/IpAddress.o
 .data          0x0000000000800206        0x3 ./src/Netmask.o
 .data          0x0000000000800209      0x30f ./src/main.o
 .data          0x0000000000800518        0x0 ./lib/Chronodot.o
 .data          0x0000000000800518        0x0 ./lib/DallasTemperature.o
 .data          0x0000000000800518        0x0 ./lib/OneWire.o
 .data          0x0000000000800518        0x0 ./arduinolib/Wire/utility/twi.o
 .data          0x0000000000800518        0x0 ./arduinolib/Wire/Wire.o
 .data          0x0000000000800518        0x0 ./arduinolib/SPI/SPI.o
 .data          0x0000000000800518        0x0 ./arduinolib/Ethernet/utility/socket.o
 .data          0x0000000000800518        0x0 ./arduinolib/Ethernet/utility/w5100.o
 .data          0x0000000000800518        0x7 ./arduinolib/Ethernet/Dhcp.o
 .data          0x000000000080051f        0x0 ./arduinolib/Ethernet/Dns.o
 .data          0x000000000080051f        0x0 ./arduinolib/Ethernet/Ethernet.o
 .data          0x000000000080051f        0x0 ./arduinolib/Ethernet/EthernetClient.o
 .data          0x000000000080051f        0x0 ./arduinolib/Ethernet/EthernetServer.o
 .data          0x000000000080051f        0x0 ./arduinolib/Ethernet/EthernetUdp.o
 .data          0x000000000080051f        0x0 ./arduinolib/EEPROM/EEPROM.o
 .data          0x000000000080051f        0x0 /storage/apps/eclipse-avr/workspace/ArduinoCore-1.0/Mega2560/libArduinoCore-1.0.a(HardwareSerial.o)
 .data          0x000000000080051f        0x0 /storage/apps/eclipse-avr/workspace/ArduinoCore-1.0/Mega2560/libArduinoCore-1.0.a(IPAddress.o)
 .data          0x000000000080051f        0x2 /storage/apps/eclipse-avr/workspace/ArduinoCore-1.0/Mega2560/libArduinoCore-1.0.a(Print.o)
 .data          0x0000000000800521        0x0 /storage/apps/eclipse-avr/workspace/ArduinoCore-1.0/Mega2560/libArduinoCore-1.0.a(WMath.o)
 .data          0x0000000000800521        0x1 /storage/apps/eclipse-avr/workspace/ArduinoCore-1.0/Mega2560/libArduinoCore-1.0.a(WString.o)
 .data          0x0000000000800522        0x0 /storage/apps/eclipse-avr/workspace/ArduinoCore-1.0/Mega2560/libArduinoCore-1.0.a(new.o)
 .data          0x0000000000800522        0x0 /storage/apps/eclipse-avr/workspace/ArduinoCore-1.0/Mega2560/libArduinoCore-1.0.a(wiring.o)
 .data          0x0000000000800522        0x0 /storage/apps/eclipse-avr/workspace/ArduinoCore-1.0/Mega2560/libArduinoCore-1.0.a(wiring_analog.o)
 .data          0x0000000000800522        0x0 /storage/apps/eclipse-avr/workspace/ArduinoCore-1.0/Mega2560/libArduinoCore-1.0.a(wiring_digital.o)
 .data          0x0000000000800522        0x0 /usr/lib/gcc/avr/4.5.3/avr6/libgcc.a(_mulsi3.o)
 .data          0x0000000000800522        0x0 /usr/lib/gcc/avr/4.5.3/avr6/libgcc.a(_udivmodqi4.o)
 .data          0x0000000000800522        0x0 /usr/lib/gcc/avr/4.5.3/avr6/libgcc.a(_udivmodhi4.o)
 .data          0x0000000000800522        0x0 /usr/lib/gcc/avr/4.5.3/avr6/libgcc.a(_divmodhi4.o)
 .data          0x0000000000800522        0x0 /usr/lib/gcc/avr/4.5.3/avr6/libgcc.a(_udivmodsi4.o)
 .data          0x0000000000800522        0x0 /usr/lib/gcc/avr/4.5.3/avr6/libgcc.a(_divmodsi4.o)
 .data          0x0000000000800522        0x0 /usr/lib/gcc/avr/4.5.3/avr6/libgcc.a(_exit.o)
 .data          0x0000000000800522        0x0 /usr/lib/gcc/avr/4.5.3/avr6/libgcc.a(_copy_data.o)
 .data          0x0000000000800522        0x0 /usr/lib/gcc/avr/4.5.3/avr6/libgcc.a(_clear_bss.o)
 .data          0x0000000000800522        0x0 /usr/lib/gcc/avr/4.5.3/avr6/libgcc.a(_ctors.o)
 .data          0x0000000000800522        0x0 /usr/lib/gcc/avr/4.5.3/avr6/libgcc.a(_dtors.o)
 .data          0x0000000000800522        0x0 /usr/lib/gcc/avr/4.5.3/avr6/libgcc.a(_fixunssfsi.o)
 .data          0x0000000000800522        0x0 /usr/lib/gcc/avr/4.5.3/avr6/libgcc.a(_addsub_sf.o)
 .data          0x0000000000800522        0x0 /usr/lib/gcc/avr/4.5.3/avr6/libgcc.a(_mul_sf.o)
 .data          0x0000000000800522        0x0 /usr/lib/gcc/avr/4.5.3/avr6/libgcc.a(_div_sf.o)
 .data          0x0000000000800522        0x0 /usr/lib/gcc/avr/4.5.3/avr6/libgcc.a(_ge_sf.o)
 .data          0x0000000000800522        0x0 /usr/lib/gcc/avr/4.5.3/avr6/libgcc.a(_lt_sf.o)
 .data          0x0000000000800522        0x0 /usr/lib/gcc/avr/4.5.3/avr6/libgcc.a(_si_to_sf.o)
 .data          0x0000000000800522        0x0 /usr/lib/gcc/avr/4.5.3/avr6/libgcc.a(_sf_to_si.o)
 .data          0x0000000000800522        0x8 /usr/lib/gcc/avr/4.5.3/avr6/libgcc.a(_thenan_sf.o)
                0x0000000000800522                __thenan_sf
 .data          0x000000000080052a        0x0 /usr/lib/gcc/avr/4.5.3/avr6/libgcc.a(_usi_to_sf.o)
 .data          0x000000000080052a        0x0 /usr/lib/gcc/avr/4.5.3/avr6/libgcc.a(_prologue.o)
 .data          0x000000000080052a        0x0 /usr/lib/gcc/avr/4.5.3/avr6/libgcc.a(_epilogue.o)
 .data          0x000000000080052a        0x0 /usr/lib/gcc/avr/4.5.3/avr6/libgcc.a(_tablejump_elpm.o)
 .data          0x000000000080052a        0x0 /usr/lib/gcc/avr/4.5.3/avr6/libgcc.a(_clzsi2.o)
 .data          0x000000000080052a        0x0 /usr/lib/gcc/avr/4.5.3/avr6/libgcc.a(_pack_sf.o)
 .data          0x000000000080052a        0x0 /usr/lib/gcc/avr/4.5.3/avr6/libgcc.a(_unpack_sf.o)
 .data          0x000000000080052a        0x0 /usr/lib/gcc/avr/4.5.3/avr6/libgcc.a(_fpcmp_parts_sf.o)
 .data          0x000000000080052a      0x100 /usr/lib/gcc/avr/4.5.3/avr6/libgcc.a(_clz.o)
                0x000000000080052a                __clz_tab
 .data          0x000000000080062a        0x0 /usr/lib/gcc/avr/4.5.3/../../../avr/lib/avr6/libc.a(dtostrf.o)
 .data          0x000000000080062a        0x6 /usr/lib/gcc/avr/4.5.3/../../../avr/lib/avr6/libc.a(malloc.o)
                0x000000000080062a                __malloc_margin
                0x000000000080062c                __malloc_heap_start
                0x000000000080062e                __malloc_heap_end
 .data          0x0000000000800630        0x4 /usr/lib/gcc/avr/4.5.3/../../../avr/lib/avr6/libc.a(random.o)
 .data          0x0000000000800634        0x0 /usr/lib/gcc/avr/4.5.3/../../../avr/lib/avr6/libc.a(realloc.o)
 .data          0x0000000000800634        0x0 /usr/lib/gcc/avr/4.5.3/../../../avr/lib/avr6/libc.a(atof.o)
 .data          0x0000000000800634        0x0 /usr/lib/gcc/avr/4.5.3/../../../avr/lib/avr6/libc.a(atoi.o)
 .data          0x0000000000800634        0x0 /usr/lib/gcc/avr/4.5.3/../../../avr/lib/avr6/libc.a(atol.o)
 .data          0x0000000000800634        0x0 /usr/lib/gcc/avr/4.5.3/../../../avr/lib/avr6/libc.a(isspace.o)
 .data          0x0000000000800634        0x0 /usr/lib/gcc/avr/4.5.3/../../../avr/lib/avr6/libc.a(tolower.o)
 .data          0x0000000000800634        0x0 /usr/lib/gcc/avr/4.5.3/../../../avr/lib/avr6/libc.a(toupper.o)
 .data          0x0000000000800634        0x0 /usr/lib/gcc/avr/4.5.3/../../../avr/lib/avr6/libc.a(strtok.o)
 .data          0x0000000000800634        0x0 /usr/lib/gcc/avr/4.5.3/../../../avr/lib/avr6/libc.a(memcmp.o)
 .data          0x0000000000800634        0x0 /usr/lib/gcc/avr/4.5.3/../../../avr/lib/avr6/libc.a(memcpy.o)
 .data          0x0000000000800634        0x0 /usr/lib/gcc/avr/4.5.3/../../../avr/lib/avr6/libc.a(memmove.o)
 .data          0x0000000000800634        0x0 /usr/lib/gcc/avr/4.5.3/../../../avr/lib/avr6/libc.a(memset.o)
 .data          0x0000000000800634        0x0 /usr/lib/gcc/avr/4.5.3/../../../avr/lib/avr6/libc.a(strchr.o)
 .data          0x0000000000800634        0x0 /usr/lib/gcc/avr/4.5.3/../../../avr/lib/avr6/libc.a(strcmp.o)
 .data          0x0000000000800634        0x0 /usr/lib/gcc/avr/4.5.3/../../../avr/lib/avr6/libc.a(strcpy.o)
 .data          0x0000000000800634        0x0 /usr/lib/gcc/avr/4.5.3/../../../avr/lib/avr6/libc.a(strncmp.o)
 .data          0x0000000000800634        0x0 /usr/lib/gcc/avr/4.5.3/../../../avr/lib/avr6/libc.a(strncpy.o)
 .data          0x0000000000800634        0x0 /usr/lib/gcc/avr/4.5.3/../../../avr/lib/avr6/libc.a(strrchr.o)
 .data          0x0000000000800634        0x0 /usr/lib/gcc/avr/4.5.3/../../../avr/lib/avr6/libc.a(strstr.o)
 .data          0x0000000000800634        0x0 /usr/lib/gcc/avr/4.5.3/../../../avr/lib/avr6/libc.a(strtok_r.o)
 .data          0x0000000000800634        0x0 /usr/lib/gcc/avr/4.5.3/../../../avr/lib/avr6/libc.a(itoa.o)
 .data          0x0000000000800634        0x0 /usr/lib/gcc/avr/4.5.3/../../../avr/lib/avr6/libc.a(ltoa.o)
 .data          0x0000000000800634        0x0 /usr/lib/gcc/avr/4.5.3/../../../avr/lib/avr6/libc.a(mulsi10.o)
 .data          0x0000000000800634        0x0 /usr/lib/gcc/avr/4.5.3/../../../avr/lib/avr6/libc.a(mul10.o)
 .data          0x0000000000800634        0x0 /usr/lib/gcc/avr/4.5.3/../../../avr/lib/avr6/libc.a(ultoa.o)
 .data          0x0000000000800634        0x0 /usr/lib/gcc/avr/4.5.3/../../../avr/lib/avr6/libc.a(utoa.o)
 .data          0x0000000000800634        0x0 /usr/lib/gcc/avr/4.5.3/../../../avr/lib/avr6/libc.a(sprintf.o)
 .data          0x0000000000800634        0x0 /usr/lib/gcc/avr/4.5.3/../../../avr/lib/avr6/libc.a(vfprintf_std.o)
 .data          0x0000000000800634        0x0 /usr/lib/gcc/avr/4.5.3/../../../avr/lib/avr6/libc.a(eerd_byte_atmega2560.o)
 .data          0x0000000000800634        0x0 /usr/lib/gcc/avr/4.5.3/../../../avr/lib/avr6/libc.a(eewr_byte_atmega2560.o)
 .data          0x0000000000800634        0x0 /usr/lib/gcc/avr/4.5.3/../../../avr/lib/avr6/libc.a(dtoa_prf.o)
 .data          0x0000000000800634        0x0 /usr/lib/gcc/avr/4.5.3/../../../avr/lib/avr6/libc.a(strtod.o)
 .data          0x0000000000800634        0x0 /usr/lib/gcc/avr/4.5.3/../../../avr/lib/avr6/libc.a(ftoa_engine.o)
 .data          0x0000000000800634        0x0 /usr/lib/gcc/avr/4.5.3/../../../avr/lib/avr6/libc.a(cty_isfalse.o)
 .data          0x0000000000800634        0x0 /usr/lib/gcc/avr/4.5.3/../../../avr/lib/avr6/libc.a(strncasecmp_P.o)
 .data          0x0000000000800634        0x0 /usr/lib/gcc/avr/4.5.3/../../../avr/lib/avr6/libc.a(strnlen_P.o)
 .data          0x0000000000800634        0x0 /usr/lib/gcc/avr/4.5.3/../../../avr/lib/avr6/libc.a(strnlen.o)
 .data          0x0000000000800634        0x0 /usr/lib/gcc/avr/4.5.3/../../../avr/lib/avr6/libc.a(strrev.o)
 .data          0x0000000000800634        0x0 /usr/lib/gcc/avr/4.5.3/../../../avr/lib/avr6/libc.a(fputc.o)
 .data          0x0000000000800634        0x0 /usr/lib/gcc/avr/4.5.3/../../../avr/lib/avr6/libc.a(ultoa_invert.o)
 .data          0x0000000000800634        0x0 /usr/lib/gcc/avr/4.5.3/../../../avr/lib/avr6/libc.a(cmpsf2.o)
 .data          0x0000000000800634        0x0 /usr/lib/gcc/avr/4.5.3/../../../avr/lib/avr6/libc.a(fp_cmp.o)
 .data          0x0000000000800634        0x0 /usr/lib/gcc/avr/4.5.3/../../../avr/lib/avr6/libc.a(errno.o)
 *(.data*)
 .data.aquariumTemp
                0x0000000000800634        0x8 ./src/main.o
                0x0000000000800634                aquariumTemp
 .data.surfaceTemp
                0x000000000080063c        0x8 ./src/main.o
                0x000000000080063c                surfaceTemp
 .data.roomTemp
                0x0000000000800644        0x8 ./src/main.o
                0x0000000000800644                roomTemp
 .data.sdcardPin
                0x000000000080064c        0x2 ./src/main.o
                0x000000000080064c                sdcardPin
 .data.ethernetPin
                0x000000000080064e        0x2 ./src/main.o
                0x000000000080064e                ethernetPin
 .data.mac      0x0000000000800650        0x6 ./src/main.o
                0x0000000000800650                mac
 .data.mailServer
                0x0000000000800656        0x4 ./src/main.o
                0x0000000000800656                mailServer
 .data._ZN14EthernetClient8_srcportE
                0x000000000080065a        0x2 ./arduinolib/Ethernet/EthernetClient.o
                0x000000000080065a                _ZN14EthernetClient8_srcportE
 .data.analog_reference
                0x000000000080065c        0x1 /storage/apps/eclipse-avr/workspace/ArduinoCore-1.0/Mega2560/libArduinoCore-1.0.a(wiring_analog.o)
                0x000000000080065c                analog_reference
 *(.rodata)
 *(.rodata*)
 .rodata._ZL2SS
                0x000000000080065d        0x1 ./src/Config.o
 .rodata._ZL4MOSI
                0x000000000080065e        0x1 ./src/Config.o
 .rodata._ZL4MISO
                0x000000000080065f        0x1 ./src/Config.o
 .rodata._ZL3SCK
                0x0000000000800660        0x1 ./src/Config.o
 .rodata._ZL3SDA
                0x0000000000800661        0x1 ./src/Config.o
 .rodata._ZL3SCL
                0x0000000000800662        0x1 ./src/Config.o
 .rodata._ZL11LED_BUILTIN
                0x0000000000800663        0x1 ./src/Config.o
 .rodata._ZL2A0
                0x0000000000800664        0x1 ./src/Config.o
 .rodata._ZL2A1
                0x0000000000800665        0x1 ./src/Config.o
 .rodata._ZL2A2
                0x0000000000800666        0x1 ./src/Config.o
 .rodata._ZL2A3
                0x0000000000800667        0x1 ./src/Config.o
 .rodata._ZL2A4
                0x0000000000800668        0x1 ./src/Config.o
 .rodata._ZL2A5
                0x0000000000800669        0x1 ./src/Config.o
 .rodata._ZL2A6
                0x000000000080066a        0x1 ./src/Config.o
 .rodata._ZL2A7
                0x000000000080066b        0x1 ./src/Config.o
 .rodata._ZL2A8
                0x000000000080066c        0x1 ./src/Config.o
 .rodata._ZL2A9
                0x000000000080066d        0x1 ./src/Config.o
 .rodata._ZL3A10
                0x000000000080066e        0x1 ./src/Config.o
 .rodata._ZL3A11
                0x000000000080066f        0x1 ./src/Config.o
 .rodata._ZL3A12
                0x0000000000800670        0x1 ./src/Config.o
 .rodata._ZL3A13
                0x0000000000800671        0x1 ./src/Config.o
 .rodata._ZL3A14
                0x0000000000800672        0x1 ./src/Config.o
 .rodata._ZL3A15
                0x0000000000800673        0x1 ./src/Config.o
 .rodata._ZL2SS
                0x0000000000800674        0x1 ./src/Gateway.o
 .rodata._ZL4MOSI
                0x0000000000800675        0x1 ./src/Gateway.o
 .rodata._ZL4MISO
                0x0000000000800676        0x1 ./src/Gateway.o
 .rodata._ZL3SCK
                0x0000000000800677        0x1 ./src/Gateway.o
 .rodata._ZL3SDA
                0x0000000000800678        0x1 ./src/Gateway.o
 .rodata._ZL3SCL
                0x0000000000800679        0x1 ./src/Gateway.o
 .rodata._ZL11LED_BUILTIN
                0x000000000080067a        0x1 ./src/Gateway.o
 .rodata._ZL2A0
                0x000000000080067b        0x1 ./src/Gateway.o
 .rodata._ZL2A1
                0x000000000080067c        0x1 ./src/Gateway.o
 .rodata._ZL2A2
                0x000000000080067d        0x1 ./src/Gateway.o
 .rodata._ZL2A3
                0x000000000080067e        0x1 ./src/Gateway.o
 .rodata._ZL2A4
                0x000000000080067f        0x1 ./src/Gateway.o
 .rodata._ZL2A5
                0x0000000000800680        0x1 ./src/Gateway.o
 .rodata._ZL2A6
                0x0000000000800681        0x1 ./src/Gateway.o
 .rodata._ZL2A7
                0x0000000000800682        0x1 ./src/Gateway.o
 .rodata._ZL2A8
                0x0000000000800683        0x1 ./src/Gateway.o
 .rodata._ZL2A9
                0x0000000000800684        0x1 ./src/Gateway.o
 .rodata._ZL3A10
                0x0000000000800685        0x1 ./src/Gateway.o
 .rodata._ZL3A11
                0x0000000000800686        0x1 ./src/Gateway.o
 .rodata._ZL3A12
                0x0000000000800687        0x1 ./src/Gateway.o
 .rodata._ZL3A13
                0x0000000000800688        0x1 ./src/Gateway.o
 .rodata._ZL3A14
                0x0000000000800689        0x1 ./src/Gateway.o
 .rodata._ZL3A15
                0x000000000080068a        0x1 ./src/Gateway.o
 .rodata._ZL2SS
                0x000000000080068b        0x1 ./src/IpAddress.o
 .rodata._ZL4MOSI
                0x000000000080068c        0x1 ./src/IpAddress.o
 .rodata._ZL4MISO
                0x000000000080068d        0x1 ./src/IpAddress.o
 .rodata._ZL3SCK
                0x000000000080068e        0x1 ./src/IpAddress.o
 .rodata._ZL3SDA
                0x000000000080068f        0x1 ./src/IpAddress.o
 .rodata._ZL3SCL
                0x0000000000800690        0x1 ./src/IpAddress.o
 .rodata._ZL11LED_BUILTIN
                0x0000000000800691        0x1 ./src/IpAddress.o
 .rodata._ZL2A0
                0x0000000000800692        0x1 ./src/IpAddress.o
 .rodata._ZL2A1
                0x0000000000800693        0x1 ./src/IpAddress.o
 .rodata._ZL2A2
                0x0000000000800694        0x1 ./src/IpAddress.o
 .rodata._ZL2A3
                0x0000000000800695        0x1 ./src/IpAddress.o
 .rodata._ZL2A4
                0x0000000000800696        0x1 ./src/IpAddress.o
 .rodata._ZL2A5
                0x0000000000800697        0x1 ./src/IpAddress.o
 .rodata._ZL2A6
                0x0000000000800698        0x1 ./src/IpAddress.o
 .rodata._ZL2A7
                0x0000000000800699        0x1 ./src/IpAddress.o
 .rodata._ZL2A8
                0x000000000080069a        0x1 ./src/IpAddress.o
 .rodata._ZL2A9
                0x000000000080069b        0x1 ./src/IpAddress.o
 .rodata._ZL3A10
                0x000000000080069c        0x1 ./src/IpAddress.o
 .rodata._ZL3A11
                0x000000000080069d        0x1 ./src/IpAddress.o
 .rodata._ZL3A12
                0x000000000080069e        0x1 ./src/IpAddress.o
 .rodata._ZL3A13
                0x000000000080069f        0x1 ./src/IpAddress.o
 .rodata._ZL3A14
                0x00000000008006a0        0x1 ./src/IpAddress.o
 .rodata._ZL3A15
                0x00000000008006a1        0x1 ./src/IpAddress.o
 .rodata._ZL2SS
                0x00000000008006a2        0x1 ./src/Netmask.o
 .rodata._ZL4MOSI
                0x00000000008006a3        0x1 ./src/Netmask.o
 .rodata._ZL4MISO
                0x00000000008006a4        0x1 ./src/Netmask.o
 .rodata._ZL3SCK
                0x00000000008006a5        0x1 ./src/Netmask.o
 .rodata._ZL3SDA
                0x00000000008006a6        0x1 ./src/Netmask.o
 .rodata._ZL3SCL
                0x00000000008006a7        0x1 ./src/Netmask.o
 .rodata._ZL11LED_BUILTIN
                0x00000000008006a8        0x1 ./src/Netmask.o
 .rodata._ZL2A0
                0x00000000008006a9        0x1 ./src/Netmask.o
 .rodata._ZL2A1
                0x00000000008006aa        0x1 ./src/Netmask.o
 .rodata._ZL2A2
                0x00000000008006ab        0x1 ./src/Netmask.o
 .rodata._ZL2A3
                0x00000000008006ac        0x1 ./src/Netmask.o
 .rodata._ZL2A4
                0x00000000008006ad        0x1 ./src/Netmask.o
 .rodata._ZL2A5
                0x00000000008006ae        0x1 ./src/Netmask.o
 .rodata._ZL2A6
                0x00000000008006af        0x1 ./src/Netmask.o
 .rodata._ZL2A7
                0x00000000008006b0        0x1 ./src/Netmask.o
 .rodata._ZL2A8
                0x00000000008006b1        0x1 ./src/Netmask.o
 .rodata._ZL2A9
                0x00000000008006b2        0x1 ./src/Netmask.o
 .rodata._ZL3A10
                0x00000000008006b3        0x1 ./src/Netmask.o
 .rodata._ZL3A11
                0x00000000008006b4        0x1 ./src/Netmask.o
 .rodata._ZL3A12
                0x00000000008006b5        0x1 ./src/Netmask.o
 .rodata._ZL3A13
                0x00000000008006b6        0x1 ./src/Netmask.o
 .rodata._ZL3A14
                0x00000000008006b7        0x1 ./src/Netmask.o
 .rodata._ZL3A15
                0x00000000008006b8        0x1 ./src/Netmask.o
 .rodata._ZL2SS
                0x00000000008006b9        0x1 ./src/main.o
 .rodata._ZL4MOSI
                0x00000000008006ba        0x1 ./src/main.o
 .rodata._ZL4MISO
                0x00000000008006bb        0x1 ./src/main.o
 .rodata._ZL3SCK
                0x00000000008006bc        0x1 ./src/main.o
 .rodata._ZL3SDA
                0x00000000008006bd        0x1 ./src/main.o
 .rodata._ZL3SCL
                0x00000000008006be        0x1 ./src/main.o
 .rodata._ZL11LED_BUILTIN
                0x00000000008006bf        0x1 ./src/main.o
 .rodata._ZL2A0
                0x00000000008006c0        0x1 ./src/main.o
 .rodata._ZL2A1
                0x00000000008006c1        0x1 ./src/main.o
 .rodata._ZL2A2
                0x00000000008006c2        0x1 ./src/main.o
 .rodata._ZL2A3
                0x00000000008006c3        0x1 ./src/main.o
 .rodata._ZL2A4
                0x00000000008006c4        0x1 ./src/main.o
 .rodata._ZL2A5
                0x00000000008006c5        0x1 ./src/main.o
 .rodata._ZL2A6
                0x00000000008006c6        0x1 ./src/main.o
 .rodata._ZL2A7
                0x00000000008006c7        0x1 ./src/main.o
 .rodata._ZL2A8
                0x00000000008006c8        0x1 ./src/main.o
 .rodata._ZL2A9
                0x00000000008006c9        0x1 ./src/main.o
 .rodata._ZL3A10
                0x00000000008006ca        0x1 ./src/main.o
 .rodata._ZL3A11
                0x00000000008006cb        0x1 ./src/main.o
 .rodata._ZL3A12
                0x00000000008006cc        0x1 ./src/main.o
 .rodata._ZL3A13
                0x00000000008006cd        0x1 ./src/main.o
 .rodata._ZL3A14
                0x00000000008006ce        0x1 ./src/main.o
 .rodata._ZL3A15
                0x00000000008006cf        0x1 ./src/main.o
 .rodata._ZL2SS
                0x00000000008006d0        0x1 ./lib/Chronodot.o
 .rodata._ZL4MOSI
                0x00000000008006d1        0x1 ./lib/Chronodot.o
 .rodata._ZL4MISO
                0x00000000008006d2        0x1 ./lib/Chronodot.o
 .rodata._ZL3SCK
                0x00000000008006d3        0x1 ./lib/Chronodot.o
 .rodata._ZL3SDA
                0x00000000008006d4        0x1 ./lib/Chronodot.o
 .rodata._ZL3SCL
                0x00000000008006d5        0x1 ./lib/Chronodot.o
 .rodata._ZL11LED_BUILTIN
                0x00000000008006d6        0x1 ./lib/Chronodot.o
 .rodata._ZL2A0
                0x00000000008006d7        0x1 ./lib/Chronodot.o
 .rodata._ZL2A1
                0x00000000008006d8        0x1 ./lib/Chronodot.o
 .rodata._ZL2A2
                0x00000000008006d9        0x1 ./lib/Chronodot.o
 .rodata._ZL2A3
                0x00000000008006da        0x1 ./lib/Chronodot.o
 .rodata._ZL2A4
                0x00000000008006db        0x1 ./lib/Chronodot.o
 .rodata._ZL2A5
                0x00000000008006dc        0x1 ./lib/Chronodot.o
 .rodata._ZL2A6
                0x00000000008006dd        0x1 ./lib/Chronodot.o
 .rodata._ZL2A7
                0x00000000008006de        0x1 ./lib/Chronodot.o
 .rodata._ZL2A8
                0x00000000008006df        0x1 ./lib/Chronodot.o
 .rodata._ZL2A9
                0x00000000008006e0        0x1 ./lib/Chronodot.o
 .rodata._ZL3A10
                0x00000000008006e1        0x1 ./lib/Chronodot.o
 .rodata._ZL3A11
                0x00000000008006e2        0x1 ./lib/Chronodot.o
 .rodata._ZL3A12
                0x00000000008006e3        0x1 ./lib/Chronodot.o
 .rodata._ZL3A13
                0x00000000008006e4        0x1 ./lib/Chronodot.o
 .rodata._ZL3A14
                0x00000000008006e5        0x1 ./lib/Chronodot.o
 .rodata._ZL3A15
                0x00000000008006e6        0x1 ./lib/Chronodot.o
 .rodata._ZL2SS
                0x00000000008006e7        0x1 ./lib/DallasTemperature.o
 .rodata._ZL4MOSI
                0x00000000008006e8        0x1 ./lib/DallasTemperature.o
 .rodata._ZL4MISO
                0x00000000008006e9        0x1 ./lib/DallasTemperature.o
 .rodata._ZL3SCK
                0x00000000008006ea        0x1 ./lib/DallasTemperature.o
 .rodata._ZL3SDA
                0x00000000008006eb        0x1 ./lib/DallasTemperature.o
 .rodata._ZL3SCL
                0x00000000008006ec        0x1 ./lib/DallasTemperature.o
 .rodata._ZL11LED_BUILTIN
                0x00000000008006ed        0x1 ./lib/DallasTemperature.o
 .rodata._ZL2A0
                0x00000000008006ee        0x1 ./lib/DallasTemperature.o
 .rodata._ZL2A1
                0x00000000008006ef        0x1 ./lib/DallasTemperature.o
 .rodata._ZL2A2
                0x00000000008006f0        0x1 ./lib/DallasTemperature.o
 .rodata._ZL2A3
                0x00000000008006f1        0x1 ./lib/DallasTemperature.o
 .rodata._ZL2A4
                0x00000000008006f2        0x1 ./lib/DallasTemperature.o
 .rodata._ZL2A5
                0x00000000008006f3        0x1 ./lib/DallasTemperature.o
 .rodata._ZL2A6
                0x00000000008006f4        0x1 ./lib/DallasTemperature.o
 .rodata._ZL2A7
                0x00000000008006f5        0x1 ./lib/DallasTemperature.o
 .rodata._ZL2A8
                0x00000000008006f6        0x1 ./lib/DallasTemperature.o
 .rodata._ZL2A9
                0x00000000008006f7        0x1 ./lib/DallasTemperature.o
 .rodata._ZL3A10
                0x00000000008006f8        0x1 ./lib/DallasTemperature.o
 .rodata._ZL3A11
                0x00000000008006f9        0x1 ./lib/DallasTemperature.o
 .rodata._ZL3A12
                0x00000000008006fa        0x1 ./lib/DallasTemperature.o
 .rodata._ZL3A13
                0x00000000008006fb        0x1 ./lib/DallasTemperature.o
 .rodata._ZL3A14
                0x00000000008006fc        0x1 ./lib/DallasTemperature.o
 .rodata._ZL3A15
                0x00000000008006fd        0x1 ./lib/DallasTemperature.o
 .rodata._ZL2SS
                0x00000000008006fe        0x1 ./lib/OneWire.o
 .rodata._ZL4MOSI
                0x00000000008006ff        0x1 ./lib/OneWire.o
 .rodata._ZL4MISO
                0x0000000000800700        0x1 ./lib/OneWire.o
 .rodata._ZL3SCK
                0x0000000000800701        0x1 ./lib/OneWire.o
 .rodata._ZL3SDA
                0x0000000000800702        0x1 ./lib/OneWire.o
 .rodata._ZL3SCL
                0x0000000000800703        0x1 ./lib/OneWire.o
 .rodata._ZL11LED_BUILTIN
                0x0000000000800704        0x1 ./lib/OneWire.o
 .rodata._ZL2A0
                0x0000000000800705        0x1 ./lib/OneWire.o
 .rodata._ZL2A1
                0x0000000000800706        0x1 ./lib/OneWire.o
 .rodata._ZL2A2
                0x0000000000800707        0x1 ./lib/OneWire.o
 .rodata._ZL2A3
                0x0000000000800708        0x1 ./lib/OneWire.o
 .rodata._ZL2A4
                0x0000000000800709        0x1 ./lib/OneWire.o
 .rodata._ZL2A5
                0x000000000080070a        0x1 ./lib/OneWire.o
 .rodata._ZL2A6
                0x000000000080070b        0x1 ./lib/OneWire.o
 .rodata._ZL2A7
                0x000000000080070c        0x1 ./lib/OneWire.o
 .rodata._ZL2A8
                0x000000000080070d        0x1 ./lib/OneWire.o
 .rodata._ZL2A9
                0x000000000080070e        0x1 ./lib/OneWire.o
 .rodata._ZL3A10
                0x000000000080070f        0x1 ./lib/OneWire.o
 .rodata._ZL3A11
                0x0000000000800710        0x1 ./lib/OneWire.o
 .rodata._ZL3A12
                0x0000000000800711        0x1 ./lib/OneWire.o
 .rodata._ZL3A13
                0x0000000000800712        0x1 ./lib/OneWire.o
 .rodata._ZL3A14
                0x0000000000800713        0x1 ./lib/OneWire.o
 .rodata._ZL3A15
                0x0000000000800714        0x1 ./lib/OneWire.o
 .rodata._ZZN7OneWire5crc16EPhjE9oddparity
                0x0000000000800715       0x10 ./lib/OneWire.o
 .rodata._ZL2SS
                0x0000000000800725        0x1 ./arduinolib/Wire/utility/twi.o
 .rodata._ZL4MOSI
                0x0000000000800726        0x1 ./arduinolib/Wire/utility/twi.o
 .rodata._ZL4MISO
                0x0000000000800727        0x1 ./arduinolib/Wire/utility/twi.o
 .rodata._ZL3SCK
                0x0000000000800728        0x1 ./arduinolib/Wire/utility/twi.o
 .rodata._ZL3SDA
                0x0000000000800729        0x1 ./arduinolib/Wire/utility/twi.o
 .rodata._ZL3SCL
                0x000000000080072a        0x1 ./arduinolib/Wire/utility/twi.o
 .rodata._ZL11LED_BUILTIN
                0x000000000080072b        0x1 ./arduinolib/Wire/utility/twi.o
 .rodata._ZL2A0
                0x000000000080072c        0x1 ./arduinolib/Wire/utility/twi.o
 .rodata._ZL2A1
                0x000000000080072d        0x1 ./arduinolib/Wire/utility/twi.o
 .rodata._ZL2A2
                0x000000000080072e        0x1 ./arduinolib/Wire/utility/twi.o
 .rodata._ZL2A3
                0x000000000080072f        0x1 ./arduinolib/Wire/utility/twi.o
 .rodata._ZL2A4
                0x0000000000800730        0x1 ./arduinolib/Wire/utility/twi.o
 .rodata._ZL2A5
                0x0000000000800731        0x1 ./arduinolib/Wire/utility/twi.o
 .rodata._ZL2A6
                0x0000000000800732        0x1 ./arduinolib/Wire/utility/twi.o
 .rodata._ZL2A7
                0x0000000000800733        0x1 ./arduinolib/Wire/utility/twi.o
 .rodata._ZL2A8
                0x0000000000800734        0x1 ./arduinolib/Wire/utility/twi.o
 .rodata._ZL2A9
                0x0000000000800735        0x1 ./arduinolib/Wire/utility/twi.o
 .rodata._ZL3A10
                0x0000000000800736        0x1 ./arduinolib/Wire/utility/twi.o
 .rodata._ZL3A11
                0x0000000000800737        0x1 ./arduinolib/Wire/utility/twi.o
 .rodata._ZL3A12
                0x0000000000800738        0x1 ./arduinolib/Wire/utility/twi.o
 .rodata._ZL3A13
                0x0000000000800739        0x1 ./arduinolib/Wire/utility/twi.o
 .rodata._ZL3A14
                0x000000000080073a        0x1 ./arduinolib/Wire/utility/twi.o
 .rodata._ZL3A15
                0x000000000080073b        0x1 ./arduinolib/Wire/utility/twi.o
 .rodata._ZTV7TwoWire
                0x000000000080073c       0x10 ./arduinolib/Wire/Wire.o
                0x000000000080073c                _ZTV7TwoWire
 .rodata._ZTV6Stream
                0x000000000080074c       0x10 ./arduinolib/Wire/Wire.o
                0x000000000080074c                _ZTV6Stream
 .rodata._ZL2SS
                0x000000000080075c        0x1 ./arduinolib/SPI/SPI.o
 .rodata._ZL4MOSI
                0x000000000080075d        0x1 ./arduinolib/SPI/SPI.o
 .rodata._ZL4MISO
                0x000000000080075e        0x1 ./arduinolib/SPI/SPI.o
 .rodata._ZL3SCK
                0x000000000080075f        0x1 ./arduinolib/SPI/SPI.o
 .rodata._ZL3SDA
                0x0000000000800760        0x1 ./arduinolib/SPI/SPI.o
 .rodata._ZL3SCL
                0x0000000000800761        0x1 ./arduinolib/SPI/SPI.o
 .rodata._ZL11LED_BUILTIN
                0x0000000000800762        0x1 ./arduinolib/SPI/SPI.o
 .rodata._ZL2A0
                0x0000000000800763        0x1 ./arduinolib/SPI/SPI.o
 .rodata._ZL2A1
                0x0000000000800764        0x1 ./arduinolib/SPI/SPI.o
 .rodata._ZL2A2
                0x0000000000800765        0x1 ./arduinolib/SPI/SPI.o
 .rodata._ZL2A3
                0x0000000000800766        0x1 ./arduinolib/SPI/SPI.o
 .rodata._ZL2A4
                0x0000000000800767        0x1 ./arduinolib/SPI/SPI.o
 .rodata._ZL2A5
                0x0000000000800768        0x1 ./arduinolib/SPI/SPI.o
 .rodata._ZL2A6
                0x0000000000800769        0x1 ./arduinolib/SPI/SPI.o
 .rodata._ZL2A7
                0x000000000080076a        0x1 ./arduinolib/SPI/SPI.o
 .rodata._ZL2A8
                0x000000000080076b        0x1 ./arduinolib/SPI/SPI.o
 .rodata._ZL2A9
                0x000000000080076c        0x1 ./arduinolib/SPI/SPI.o
 .rodata._ZL3A10
                0x000000000080076d        0x1 ./arduinolib/SPI/SPI.o
 .rodata._ZL3A11
                0x000000000080076e        0x1 ./arduinolib/SPI/SPI.o
 .rodata._ZL3A12
                0x000000000080076f        0x1 ./arduinolib/SPI/SPI.o
 .rodata._ZL3A13
                0x0000000000800770        0x1 ./arduinolib/SPI/SPI.o
 .rodata._ZL3A14
                0x0000000000800771        0x1 ./arduinolib/SPI/SPI.o
 .rodata._ZL3A15
                0x0000000000800772        0x1 ./arduinolib/SPI/SPI.o
 .rodata._ZL2SS
                0x0000000000800773        0x1 ./arduinolib/Ethernet/utility/socket.o
 .rodata._ZL4MOSI
                0x0000000000800774        0x1 ./arduinolib/Ethernet/utility/socket.o
 .rodata._ZL4MISO
                0x0000000000800775        0x1 ./arduinolib/Ethernet/utility/socket.o
 .rodata._ZL3SCK
                0x0000000000800776        0x1 ./arduinolib/Ethernet/utility/socket.o
 .rodata._ZL3SDA
                0x0000000000800777        0x1 ./arduinolib/Ethernet/utility/socket.o
 .rodata._ZL3SCL
                0x0000000000800778        0x1 ./arduinolib/Ethernet/utility/socket.o
 .rodata._ZL11LED_BUILTIN
                0x0000000000800779        0x1 ./arduinolib/Ethernet/utility/socket.o
 .rodata._ZL2A0
                0x000000000080077a        0x1 ./arduinolib/Ethernet/utility/socket.o
 .rodata._ZL2A1
                0x000000000080077b        0x1 ./arduinolib/Ethernet/utility/socket.o
 .rodata._ZL2A2
                0x000000000080077c        0x1 ./arduinolib/Ethernet/utility/socket.o
 .rodata._ZL2A3
                0x000000000080077d        0x1 ./arduinolib/Ethernet/utility/socket.o
 .rodata._ZL2A4
                0x000000000080077e        0x1 ./arduinolib/Ethernet/utility/socket.o
 .rodata._ZL2A5
                0x000000000080077f        0x1 ./arduinolib/Ethernet/utility/socket.o
 .rodata._ZL2A6
                0x0000000000800780        0x1 ./arduinolib/Ethernet/utility/socket.o
 .rodata._ZL2A7
                0x0000000000800781        0x1 ./arduinolib/Ethernet/utility/socket.o
 .rodata._ZL2A8
                0x0000000000800782        0x1 ./arduinolib/Ethernet/utility/socket.o
 .rodata._ZL2A9
                0x0000000000800783        0x1 ./arduinolib/Ethernet/utility/socket.o
 .rodata._ZL3A10
                0x0000000000800784        0x1 ./arduinolib/Ethernet/utility/socket.o
 .rodata._ZL3A11
                0x0000000000800785        0x1 ./arduinolib/Ethernet/utility/socket.o
 .rodata._ZL3A12
                0x0000000000800786        0x1 ./arduinolib/Ethernet/utility/socket.o
 .rodata._ZL3A13
                0x0000000000800787        0x1 ./arduinolib/Ethernet/utility/socket.o
 .rodata._ZL3A14
                0x0000000000800788        0x1 ./arduinolib/Ethernet/utility/socket.o
 .rodata._ZL3A15
                0x0000000000800789        0x1 ./arduinolib/Ethernet/utility/socket.o
 .rodata._ZL2SS
                0x000000000080078a        0x1 ./arduinolib/Ethernet/utility/w5100.o
 .rodata._ZL4MOSI
                0x000000000080078b        0x1 ./arduinolib/Ethernet/utility/w5100.o
 .rodata._ZL4MISO
                0x000000000080078c        0x1 ./arduinolib/Ethernet/utility/w5100.o
 .rodata._ZL3SCK
                0x000000000080078d        0x1 ./arduinolib/Ethernet/utility/w5100.o
 .rodata._ZL3SDA
                0x000000000080078e        0x1 ./arduinolib/Ethernet/utility/w5100.o
 .rodata._ZL3SCL
                0x000000000080078f        0x1 ./arduinolib/Ethernet/utility/w5100.o
 .rodata._ZL11LED_BUILTIN
                0x0000000000800790        0x1 ./arduinolib/Ethernet/utility/w5100.o
 .rodata._ZL2A0
                0x0000000000800791        0x1 ./arduinolib/Ethernet/utility/w5100.o
 .rodata._ZL2A1
                0x0000000000800792        0x1 ./arduinolib/Ethernet/utility/w5100.o
 .rodata._ZL2A2
                0x0000000000800793        0x1 ./arduinolib/Ethernet/utility/w5100.o
 .rodata._ZL2A3
                0x0000000000800794        0x1 ./arduinolib/Ethernet/utility/w5100.o
 .rodata._ZL2A4
                0x0000000000800795        0x1 ./arduinolib/Ethernet/utility/w5100.o
 .rodata._ZL2A5
                0x0000000000800796        0x1 ./arduinolib/Ethernet/utility/w5100.o
 .rodata._ZL2A6
                0x0000000000800797        0x1 ./arduinolib/Ethernet/utility/w5100.o
 .rodata._ZL2A7
                0x0000000000800798        0x1 ./arduinolib/Ethernet/utility/w5100.o
 .rodata._ZL2A8
                0x0000000000800799        0x1 ./arduinolib/Ethernet/utility/w5100.o
 .rodata._ZL2A9
                0x000000000080079a        0x1 ./arduinolib/Ethernet/utility/w5100.o
 .rodata._ZL3A10
                0x000000000080079b        0x1 ./arduinolib/Ethernet/utility/w5100.o
 .rodata._ZL3A11
                0x000000000080079c        0x1 ./arduinolib/Ethernet/utility/w5100.o
 .rodata._ZL3A12
                0x000000000080079d        0x1 ./arduinolib/Ethernet/utility/w5100.o
 .rodata._ZL3A13
                0x000000000080079e        0x1 ./arduinolib/Ethernet/utility/w5100.o
 .rodata._ZL3A14
                0x000000000080079f        0x1 ./arduinolib/Ethernet/utility/w5100.o
 .rodata._ZL3A15
                0x00000000008007a0        0x1 ./arduinolib/Ethernet/utility/w5100.o
 .rodata._ZTV9Printable
                0x00000000008007a1        0x6 ./arduinolib/Ethernet/Dhcp.o
                0x00000000008007a1                _ZTV9Printable
 .rodata._ZL2SS
                0x00000000008007a7        0x1 ./arduinolib/Ethernet/Dhcp.o
 .rodata._ZL4MOSI
                0x00000000008007a8        0x1 ./arduinolib/Ethernet/Dhcp.o
 .rodata._ZL4MISO
                0x00000000008007a9        0x1 ./arduinolib/Ethernet/Dhcp.o
 .rodata._ZL3SCK
                0x00000000008007aa        0x1 ./arduinolib/Ethernet/Dhcp.o
 .rodata._ZL3SDA
                0x00000000008007ab        0x1 ./arduinolib/Ethernet/Dhcp.o
 .rodata._ZL3SCL
                0x00000000008007ac        0x1 ./arduinolib/Ethernet/Dhcp.o
 .rodata._ZL11LED_BUILTIN
                0x00000000008007ad        0x1 ./arduinolib/Ethernet/Dhcp.o
 .rodata._ZL2A0
                0x00000000008007ae        0x1 ./arduinolib/Ethernet/Dhcp.o
 .rodata._ZL2A1
                0x00000000008007af        0x1 ./arduinolib/Ethernet/Dhcp.o
 .rodata._ZL2A2
                0x00000000008007b0        0x1 ./arduinolib/Ethernet/Dhcp.o
 .rodata._ZL2A3
                0x00000000008007b1        0x1 ./arduinolib/Ethernet/Dhcp.o
 .rodata._ZL2A4
                0x00000000008007b2        0x1 ./arduinolib/Ethernet/Dhcp.o
 .rodata._ZL2A5
                0x00000000008007b3        0x1 ./arduinolib/Ethernet/Dhcp.o
 .rodata._ZL2A6
                0x00000000008007b4        0x1 ./arduinolib/Ethernet/Dhcp.o
 .rodata._ZL2A7
                0x00000000008007b5        0x1 ./arduinolib/Ethernet/Dhcp.o
 .rodata._ZL2A8
                0x00000000008007b6        0x1 ./arduinolib/Ethernet/Dhcp.o
 .rodata._ZL2A9
                0x00000000008007b7        0x1 ./arduinolib/Ethernet/Dhcp.o
 .rodata._ZL3A10
                0x00000000008007b8        0x1 ./arduinolib/Ethernet/Dhcp.o
 .rodata._ZL3A11
                0x00000000008007b9        0x1 ./arduinolib/Ethernet/Dhcp.o
 .rodata._ZL3A12
                0x00000000008007ba        0x1 ./arduinolib/Ethernet/Dhcp.o
 .rodata._ZL3A13
                0x00000000008007bb        0x1 ./arduinolib/Ethernet/Dhcp.o
 .rodata._ZL3A14
                0x00000000008007bc        0x1 ./arduinolib/Ethernet/Dhcp.o
 .rodata._ZL3A15
                0x00000000008007bd        0x1 ./arduinolib/Ethernet/Dhcp.o
 .rodata._ZTV9Printable
                0x00000000008007be        0x6 ./arduinolib/Ethernet/Dns.o
 .rodata._ZL2SS
                0x00000000008007c4        0x1 ./arduinolib/Ethernet/Dns.o
 .rodata._ZL4MOSI
                0x00000000008007c5        0x1 ./arduinolib/Ethernet/Dns.o
 .rodata._ZL4MISO
                0x00000000008007c6        0x1 ./arduinolib/Ethernet/Dns.o
 .rodata._ZL3SCK
                0x00000000008007c7        0x1 ./arduinolib/Ethernet/Dns.o
 .rodata._ZL3SDA
                0x00000000008007c8        0x1 ./arduinolib/Ethernet/Dns.o
 .rodata._ZL3SCL
                0x00000000008007c9        0x1 ./arduinolib/Ethernet/Dns.o
 .rodata._ZL11LED_BUILTIN
                0x00000000008007ca        0x1 ./arduinolib/Ethernet/Dns.o
 .rodata._ZL2A0
                0x00000000008007cb        0x1 ./arduinolib/Ethernet/Dns.o
 .rodata._ZL2A1
                0x00000000008007cc        0x1 ./arduinolib/Ethernet/Dns.o
 .rodata._ZL2A2
                0x00000000008007cd        0x1 ./arduinolib/Ethernet/Dns.o
 .rodata._ZL2A3
                0x00000000008007ce        0x1 ./arduinolib/Ethernet/Dns.o
 .rodata._ZL2A4
                0x00000000008007cf        0x1 ./arduinolib/Ethernet/Dns.o
 .rodata._ZL2A5
                0x00000000008007d0        0x1 ./arduinolib/Ethernet/Dns.o
 .rodata._ZL2A6
                0x00000000008007d1        0x1 ./arduinolib/Ethernet/Dns.o
 .rodata._ZL2A7
                0x00000000008007d2        0x1 ./arduinolib/Ethernet/Dns.o
 .rodata._ZL2A8
                0x00000000008007d3        0x1 ./arduinolib/Ethernet/Dns.o
 .rodata._ZL2A9
                0x00000000008007d4        0x1 ./arduinolib/Ethernet/Dns.o
 .rodata._ZL3A10
                0x00000000008007d5        0x1 ./arduinolib/Ethernet/Dns.o
 .rodata._ZL3A11
                0x00000000008007d6        0x1 ./arduinolib/Ethernet/Dns.o
 .rodata._ZL3A12
                0x00000000008007d7        0x1 ./arduinolib/Ethernet/Dns.o
 .rodata._ZL3A13
                0x00000000008007d8        0x1 ./arduinolib/Ethernet/Dns.o
 .rodata._ZL3A14
                0x00000000008007d9        0x1 ./arduinolib/Ethernet/Dns.o
 .rodata._ZL3A15
                0x00000000008007da        0x1 ./arduinolib/Ethernet/Dns.o
 .rodata._ZTV9Printable
                0x00000000008007db        0x6 ./arduinolib/Ethernet/Ethernet.o
 .rodata._ZL2SS
                0x00000000008007e1        0x1 ./arduinolib/Ethernet/Ethernet.o
 .rodata._ZL4MOSI
                0x00000000008007e2        0x1 ./arduinolib/Ethernet/Ethernet.o
 .rodata._ZL4MISO
                0x00000000008007e3        0x1 ./arduinolib/Ethernet/Ethernet.o
 .rodata._ZL3SCK
                0x00000000008007e4        0x1 ./arduinolib/Ethernet/Ethernet.o
 .rodata._ZL3SDA
                0x00000000008007e5        0x1 ./arduinolib/Ethernet/Ethernet.o
 .rodata._ZL3SCL
                0x00000000008007e6        0x1 ./arduinolib/Ethernet/Ethernet.o
 .rodata._ZL11LED_BUILTIN
                0x00000000008007e7        0x1 ./arduinolib/Ethernet/Ethernet.o
 .rodata._ZL2A0
                0x00000000008007e8        0x1 ./arduinolib/Ethernet/Ethernet.o
 .rodata._ZL2A1
                0x00000000008007e9        0x1 ./arduinolib/Ethernet/Ethernet.o
 .rodata._ZL2A2
                0x00000000008007ea        0x1 ./arduinolib/Ethernet/Ethernet.o
 .rodata._ZL2A3
                0x00000000008007eb        0x1 ./arduinolib/Ethernet/Ethernet.o
 .rodata._ZL2A4
                0x00000000008007ec        0x1 ./arduinolib/Ethernet/Ethernet.o
 .rodata._ZL2A5
                0x00000000008007ed        0x1 ./arduinolib/Ethernet/Ethernet.o
 .rodata._ZL2A6
                0x00000000008007ee        0x1 ./arduinolib/Ethernet/Ethernet.o
 .rodata._ZL2A7
                0x00000000008007ef        0x1 ./arduinolib/Ethernet/Ethernet.o
 .rodata._ZL2A8
                0x00000000008007f0        0x1 ./arduinolib/Ethernet/Ethernet.o
 .rodata._ZL2A9
                0x00000000008007f1        0x1 ./arduinolib/Ethernet/Ethernet.o
 .rodata._ZL3A10
                0x00000000008007f2        0x1 ./arduinolib/Ethernet/Ethernet.o
 .rodata._ZL3A11
                0x00000000008007f3        0x1 ./arduinolib/Ethernet/Ethernet.o
 .rodata._ZL3A12
                0x00000000008007f4        0x1 ./arduinolib/Ethernet/Ethernet.o
 .rodata._ZL3A13
                0x00000000008007f5        0x1 ./arduinolib/Ethernet/Ethernet.o
 .rodata._ZL3A14
                0x00000000008007f6        0x1 ./arduinolib/Ethernet/Ethernet.o
 .rodata._ZL3A15
                0x00000000008007f7        0x1 ./arduinolib/Ethernet/Ethernet.o
 .rodata._ZTV14EthernetClient
                0x00000000008007f8       0x1c ./arduinolib/Ethernet/EthernetClient.o
                0x00000000008007f8                _ZTV14EthernetClient
 .rodata._ZTV6Client
                0x0000000000800814       0x1c ./arduinolib/Ethernet/EthernetClient.o
                0x0000000000800814                _ZTV6Client
 .rodata._ZTV6Stream
                0x0000000000800830       0x10 ./arduinolib/Ethernet/EthernetClient.o
 .rodata._ZTV9Printable
                0x0000000000800840        0x6 ./arduinolib/Ethernet/EthernetClient.o
 .rodata._ZL2SS
                0x0000000000800846        0x1 ./arduinolib/Ethernet/EthernetClient.o
 .rodata._ZL4MOSI
                0x0000000000800847        0x1 ./arduinolib/Ethernet/EthernetClient.o
 .rodata._ZL4MISO
                0x0000000000800848        0x1 ./arduinolib/Ethernet/EthernetClient.o
 .rodata._ZL3SCK
                0x0000000000800849        0x1 ./arduinolib/Ethernet/EthernetClient.o
 .rodata._ZL3SDA
                0x000000000080084a        0x1 ./arduinolib/Ethernet/EthernetClient.o
 .rodata._ZL3SCL
                0x000000000080084b        0x1 ./arduinolib/Ethernet/EthernetClient.o
 .rodata._ZL11LED_BUILTIN
                0x000000000080084c        0x1 ./arduinolib/Ethernet/EthernetClient.o
 .rodata._ZL2A0
                0x000000000080084d        0x1 ./arduinolib/Ethernet/EthernetClient.o
 .rodata._ZL2A1
                0x000000000080084e        0x1 ./arduinolib/Ethernet/EthernetClient.o
 .rodata._ZL2A2
                0x000000000080084f        0x1 ./arduinolib/Ethernet/EthernetClient.o
 .rodata._ZL2A3
                0x0000000000800850        0x1 ./arduinolib/Ethernet/EthernetClient.o
 .rodata._ZL2A4
                0x0000000000800851        0x1 ./arduinolib/Ethernet/EthernetClient.o
 .rodata._ZL2A5
                0x0000000000800852        0x1 ./arduinolib/Ethernet/EthernetClient.o
 .rodata._ZL2A6
                0x0000000000800853        0x1 ./arduinolib/Ethernet/EthernetClient.o
 .rodata._ZL2A7
                0x0000000000800854        0x1 ./arduinolib/Ethernet/EthernetClient.o
 .rodata._ZL2A8
                0x0000000000800855        0x1 ./arduinolib/Ethernet/EthernetClient.o
 .rodata._ZL2A9
                0x0000000000800856        0x1 ./arduinolib/Ethernet/EthernetClient.o
 .rodata._ZL3A10
                0x0000000000800857        0x1 ./arduinolib/Ethernet/EthernetClient.o
 .rodata._ZL3A11
                0x0000000000800858        0x1 ./arduinolib/Ethernet/EthernetClient.o
 .rodata._ZL3A12
                0x0000000000800859        0x1 ./arduinolib/Ethernet/EthernetClient.o
 .rodata._ZL3A13
                0x000000000080085a        0x1 ./arduinolib/Ethernet/EthernetClient.o
 .rodata._ZL3A14
                0x000000000080085b        0x1 ./arduinolib/Ethernet/EthernetClient.o
 .rodata._ZL3A15
                0x000000000080085c        0x1 ./arduinolib/Ethernet/EthernetClient.o
 .rodata._ZTV14EthernetServer
                0x000000000080085d        0xa ./arduinolib/Ethernet/EthernetServer.o
                0x000000000080085d                _ZTV14EthernetServer
 .rodata._ZTV6Server
                0x0000000000800867        0xa ./arduinolib/Ethernet/EthernetServer.o
                0x0000000000800867                _ZTV6Server
 .rodata._ZTV6Client
                0x0000000000800871       0x1c ./arduinolib/Ethernet/EthernetServer.o
 .rodata._ZTV6Stream
                0x000000000080088d       0x10 ./arduinolib/Ethernet/EthernetServer.o
 .rodata._ZL2SS
                0x000000000080089d        0x1 ./arduinolib/Ethernet/EthernetServer.o
 .rodata._ZL4MOSI
                0x000000000080089e        0x1 ./arduinolib/Ethernet/EthernetServer.o
 .rodata._ZL4MISO
                0x000000000080089f        0x1 ./arduinolib/Ethernet/EthernetServer.o
 .rodata._ZL3SCK
                0x00000000008008a0        0x1 ./arduinolib/Ethernet/EthernetServer.o
 .rodata._ZL3SDA
                0x00000000008008a1        0x1 ./arduinolib/Ethernet/EthernetServer.o
 .rodata._ZL3SCL
                0x00000000008008a2        0x1 ./arduinolib/Ethernet/EthernetServer.o
 .rodata._ZL11LED_BUILTIN
                0x00000000008008a3        0x1 ./arduinolib/Ethernet/EthernetServer.o
 .rodata._ZL2A0
                0x00000000008008a4        0x1 ./arduinolib/Ethernet/EthernetServer.o
 .rodata._ZL2A1
                0x00000000008008a5        0x1 ./arduinolib/Ethernet/EthernetServer.o
 .rodata._ZL2A2
                0x00000000008008a6        0x1 ./arduinolib/Ethernet/EthernetServer.o
 .rodata._ZL2A3
                0x00000000008008a7        0x1 ./arduinolib/Ethernet/EthernetServer.o
 .rodata._ZL2A4
                0x00000000008008a8        0x1 ./arduinolib/Ethernet/EthernetServer.o
 .rodata._ZL2A5
                0x00000000008008a9        0x1 ./arduinolib/Ethernet/EthernetServer.o
 .rodata._ZL2A6
                0x00000000008008aa        0x1 ./arduinolib/Ethernet/EthernetServer.o
 .rodata._ZL2A7
                0x00000000008008ab        0x1 ./arduinolib/Ethernet/EthernetServer.o
 .rodata._ZL2A8
                0x00000000008008ac        0x1 ./arduinolib/Ethernet/EthernetServer.o
 .rodata._ZL2A9
                0x00000000008008ad        0x1 ./arduinolib/Ethernet/EthernetServer.o
 .rodata._ZL3A10
                0x00000000008008ae        0x1 ./arduinolib/Ethernet/EthernetServer.o
 .rodata._ZL3A11
                0x00000000008008af        0x1 ./arduinolib/Ethernet/EthernetServer.o
 .rodata._ZL3A12
                0x00000000008008b0        0x1 ./arduinolib/Ethernet/EthernetServer.o
 .rodata._ZL3A13
                0x00000000008008b1        0x1 ./arduinolib/Ethernet/EthernetServer.o
 .rodata._ZL3A14
                0x00000000008008b2        0x1 ./arduinolib/Ethernet/EthernetServer.o
 .rodata._ZL3A15
                0x00000000008008b3        0x1 ./arduinolib/Ethernet/EthernetServer.o
 .rodata._ZTV11EthernetUDP
                0x00000000008008b4       0x24 ./arduinolib/Ethernet/EthernetUdp.o
                0x00000000008008b4                _ZTV11EthernetUDP
 .rodata._ZTV3UDP
                0x00000000008008d8       0x24 ./arduinolib/Ethernet/EthernetUdp.o
                0x00000000008008d8                _ZTV3UDP
 .rodata._ZTV6Stream
                0x00000000008008fc       0x10 ./arduinolib/Ethernet/EthernetUdp.o
 .rodata._ZTV9Printable
                0x000000000080090c        0x6 ./arduinolib/Ethernet/EthernetUdp.o
 .rodata._ZL2SS
                0x0000000000800912        0x1 ./arduinolib/Ethernet/EthernetUdp.o
 .rodata._ZL4MOSI
                0x0000000000800913        0x1 ./arduinolib/Ethernet/EthernetUdp.o
 .rodata._ZL4MISO
                0x0000000000800914        0x1 ./arduinolib/Ethernet/EthernetUdp.o
 .rodata._ZL3SCK
                0x0000000000800915        0x1 ./arduinolib/Ethernet/EthernetUdp.o
 .rodata._ZL3SDA
                0x0000000000800916        0x1 ./arduinolib/Ethernet/EthernetUdp.o
 .rodata._ZL3SCL
                0x0000000000800917        0x1 ./arduinolib/Ethernet/EthernetUdp.o
 .rodata._ZL11LED_BUILTIN
                0x0000000000800918        0x1 ./arduinolib/Ethernet/EthernetUdp.o
 .rodata._ZL2A0
                0x0000000000800919        0x1 ./arduinolib/Ethernet/EthernetUdp.o
 .rodata._ZL2A1
                0x000000000080091a        0x1 ./arduinolib/Ethernet/EthernetUdp.o
 .rodata._ZL2A2
                0x000000000080091b        0x1 ./arduinolib/Ethernet/EthernetUdp.o
 .rodata._ZL2A3
                0x000000000080091c        0x1 ./arduinolib/Ethernet/EthernetUdp.o
 .rodata._ZL2A4
                0x000000000080091d        0x1 ./arduinolib/Ethernet/EthernetUdp.o
 .rodata._ZL2A5
                0x000000000080091e        0x1 ./arduinolib/Ethernet/EthernetUdp.o
 .rodata._ZL2A6
                0x000000000080091f        0x1 ./arduinolib/Ethernet/EthernetUdp.o
 .rodata._ZL2A7
                0x0000000000800920        0x1 ./arduinolib/Ethernet/EthernetUdp.o
 .rodata._ZL2A8
                0x0000000000800921        0x1 ./arduinolib/Ethernet/EthernetUdp.o
 .rodata._ZL2A9
                0x0000000000800922        0x1 ./arduinolib/Ethernet/EthernetUdp.o
 .rodata._ZL3A10
                0x0000000000800923        0x1 ./arduinolib/Ethernet/EthernetUdp.o
 .rodata._ZL3A11
                0x0000000000800924        0x1 ./arduinolib/Ethernet/EthernetUdp.o
 .rodata._ZL3A12
                0x0000000000800925        0x1 ./arduinolib/Ethernet/EthernetUdp.o
 .rodata._ZL3A13
                0x0000000000800926        0x1 ./arduinolib/Ethernet/EthernetUdp.o
 .rodata._ZL3A14
                0x0000000000800927        0x1 ./arduinolib/Ethernet/EthernetUdp.o
 .rodata._ZL3A15
                0x0000000000800928        0x1 ./arduinolib/Ethernet/EthernetUdp.o
 .rodata._ZL2SS
                0x0000000000800929        0x1 ./arduinolib/EEPROM/EEPROM.o
 .rodata._ZL4MOSI
                0x000000000080092a        0x1 ./arduinolib/EEPROM/EEPROM.o
 .rodata._ZL4MISO
                0x000000000080092b        0x1 ./arduinolib/EEPROM/EEPROM.o
 .rodata._ZL3SCK
                0x000000000080092c        0x1 ./arduinolib/EEPROM/EEPROM.o
 .rodata._ZL3SDA
                0x000000000080092d        0x1 ./arduinolib/EEPROM/EEPROM.o
 .rodata._ZL3SCL
                0x000000000080092e        0x1 ./arduinolib/EEPROM/EEPROM.o
 .rodata._ZL11LED_BUILTIN
                0x000000000080092f        0x1 ./arduinolib/EEPROM/EEPROM.o
 .rodata._ZL2A0
                0x0000000000800930        0x1 ./arduinolib/EEPROM/EEPROM.o
 .rodata._ZL2A1
                0x0000000000800931        0x1 ./arduinolib/EEPROM/EEPROM.o
 .rodata._ZL2A2
                0x0000000000800932        0x1 ./arduinolib/EEPROM/EEPROM.o
 .rodata._ZL2A3
                0x0000000000800933        0x1 ./arduinolib/EEPROM/EEPROM.o
 .rodata._ZL2A4
                0x0000000000800934        0x1 ./arduinolib/EEPROM/EEPROM.o
 .rodata._ZL2A5
                0x0000000000800935        0x1 ./arduinolib/EEPROM/EEPROM.o
 .rodata._ZL2A6
                0x0000000000800936        0x1 ./arduinolib/EEPROM/EEPROM.o
 .rodata._ZL2A7
                0x0000000000800937        0x1 ./arduinolib/EEPROM/EEPROM.o
 .rodata._ZL2A8
                0x0000000000800938        0x1 ./arduinolib/EEPROM/EEPROM.o
 .rodata._ZL2A9
                0x0000000000800939        0x1 ./arduinolib/EEPROM/EEPROM.o
 .rodata._ZL3A10
                0x000000000080093a        0x1 ./arduinolib/EEPROM/EEPROM.o
 .rodata._ZL3A11
                0x000000000080093b        0x1 ./arduinolib/EEPROM/EEPROM.o
 .rodata._ZL3A12
                0x000000000080093c        0x1 ./arduinolib/EEPROM/EEPROM.o
 .rodata._ZL3A13
                0x000000000080093d        0x1 ./arduinolib/EEPROM/EEPROM.o
 .rodata._ZL3A14
                0x000000000080093e        0x1 ./arduinolib/EEPROM/EEPROM.o
 .rodata._ZL3A15
                0x000000000080093f        0x1 ./arduinolib/EEPROM/EEPROM.o
 .rodata._ZTV14HardwareSerial
                0x0000000000800940       0x10 /storage/apps/eclipse-avr/workspace/ArduinoCore-1.0/Mega2560/libArduinoCore-1.0.a(HardwareSerial.o)
                0x0000000000800940                _ZTV14HardwareSerial
 .rodata._ZTV6Stream
                0x0000000000800950       0x10 /storage/apps/eclipse-avr/workspace/ArduinoCore-1.0/Mega2560/libArduinoCore-1.0.a(HardwareSerial.o)
 .rodata._ZTV9IPAddress
                0x0000000000800960        0x6 /storage/apps/eclipse-avr/workspace/ArduinoCore-1.0/Mega2560/libArduinoCore-1.0.a(IPAddress.o)
                0x0000000000800960                _ZTV9IPAddress
 .rodata._ZTV9Printable
                0x0000000000800966        0x6 /storage/apps/eclipse-avr/workspace/ArduinoCore-1.0/Mega2560/libArduinoCore-1.0.a(IPAddress.o)
 .rodata._ZTV5Print
                0x000000000080096c        0x8 /storage/apps/eclipse-avr/workspace/ArduinoCore-1.0/Mega2560/libArduinoCore-1.0.a(Print.o)
                0x000000000080096c                _ZTV5Print
 *(.gnu.linkonce.d*)
                0x0000000000800974                . = ALIGN (0x2)
                0x0000000000800974                _edata = .
                0x0000000000800974                PROVIDE (__data_end, .)

.bss            0x0000000000800974      0x474
                0x0000000000800974                PROVIDE (__bss_start, .)
 *(.bss)
 .bss           0x0000000000800974        0x0 /usr/lib/gcc/avr/4.5.3/../../../avr/lib/avr6/crtm2560.o
 .bss           0x0000000000800974        0x0 ./src/Config.o
 .bss           0x0000000000800974        0x0 ./src/Gateway.o
 .bss           0x0000000000800974        0x0 ./src/IpAddress.o
 .bss           0x0000000000800974        0x0 ./src/Netmask.o
 .bss           0x0000000000800974        0x0 ./src/main.o
 .bss           0x0000000000800974        0x0 ./lib/Chronodot.o
 .bss           0x0000000000800974        0x0 ./lib/DallasTemperature.o
 .bss           0x0000000000800974        0x0 ./lib/OneWire.o
 .bss           0x0000000000800974        0x0 ./arduinolib/Wire/utility/twi.o
 .bss           0x0000000000800974        0x0 ./arduinolib/Wire/Wire.o
 .bss           0x0000000000800974        0x0 ./arduinolib/SPI/SPI.o
 .bss           0x0000000000800974        0x0 ./arduinolib/Ethernet/utility/socket.o
 .bss           0x0000000000800974        0x0 ./arduinolib/Ethernet/utility/w5100.o
 .bss           0x0000000000800974        0x0 ./arduinolib/Ethernet/Dhcp.o
 .bss           0x0000000000800974        0x0 ./arduinolib/Ethernet/Dns.o
 .bss           0x0000000000800974        0x0 ./arduinolib/Ethernet/Ethernet.o
 .bss           0x0000000000800974        0x0 ./arduinolib/Ethernet/EthernetClient.o
 .bss           0x0000000000800974        0x0 ./arduinolib/Ethernet/EthernetServer.o
 .bss           0x0000000000800974        0x0 ./arduinolib/Ethernet/EthernetUdp.o
 .bss           0x0000000000800974        0x0 ./arduinolib/EEPROM/EEPROM.o
 .bss           0x0000000000800974        0x0 /storage/apps/eclipse-avr/workspace/ArduinoCore-1.0/Mega2560/libArduinoCore-1.0.a(HardwareSerial.o)
 .bss           0x0000000000800974        0x0 /storage/apps/eclipse-avr/workspace/ArduinoCore-1.0/Mega2560/libArduinoCore-1.0.a(IPAddress.o)
 .bss           0x0000000000800974        0x0 /storage/apps/eclipse-avr/workspace/ArduinoCore-1.0/Mega2560/libArduinoCore-1.0.a(Print.o)
 .bss           0x0000000000800974        0x0 /storage/apps/eclipse-avr/workspace/ArduinoCore-1.0/Mega2560/libArduinoCore-1.0.a(WMath.o)
 .bss           0x0000000000800974        0x0 /storage/apps/eclipse-avr/workspace/ArduinoCore-1.0/Mega2560/libArduinoCore-1.0.a(WString.o)
 .bss           0x0000000000800974        0x0 /storage/apps/eclipse-avr/workspace/ArduinoCore-1.0/Mega2560/libArduinoCore-1.0.a(new.o)
 .bss           0x0000000000800974        0x0 /storage/apps/eclipse-avr/workspace/ArduinoCore-1.0/Mega2560/libArduinoCore-1.0.a(wiring.o)
 .bss           0x0000000000800974        0x0 /storage/apps/eclipse-avr/workspace/ArduinoCore-1.0/Mega2560/libArduinoCore-1.0.a(wiring_analog.o)
 .bss           0x0000000000800974        0x0 /storage/apps/eclipse-avr/workspace/ArduinoCore-1.0/Mega2560/libArduinoCore-1.0.a(wiring_digital.o)
 .bss           0x0000000000800974        0x0 /usr/lib/gcc/avr/4.5.3/avr6/libgcc.a(_mulsi3.o)
 .bss           0x0000000000800974        0x0 /usr/lib/gcc/avr/4.5.3/avr6/libgcc.a(_udivmodqi4.o)
 .bss           0x0000000000800974        0x0 /usr/lib/gcc/avr/4.5.3/avr6/libgcc.a(_udivmodhi4.o)
 .bss           0x0000000000800974        0x0 /usr/lib/gcc/avr/4.5.3/avr6/libgcc.a(_divmodhi4.o)
 .bss           0x0000000000800974        0x0 /usr/lib/gcc/avr/4.5.3/avr6/libgcc.a(_udivmodsi4.o)
 .bss           0x0000000000800974        0x0 /usr/lib/gcc/avr/4.5.3/avr6/libgcc.a(_divmodsi4.o)
 .bss           0x0000000000800974        0x0 /usr/lib/gcc/avr/4.5.3/avr6/libgcc.a(_exit.o)
 .bss           0x0000000000800974        0x0 /usr/lib/gcc/avr/4.5.3/avr6/libgcc.a(_copy_data.o)
 .bss           0x0000000000800974        0x0 /usr/lib/gcc/avr/4.5.3/avr6/libgcc.a(_clear_bss.o)
 .bss           0x0000000000800974        0x0 /usr/lib/gcc/avr/4.5.3/avr6/libgcc.a(_ctors.o)
 .bss           0x0000000000800974        0x0 /usr/lib/gcc/avr/4.5.3/avr6/libgcc.a(_dtors.o)
 .bss           0x0000000000800974        0x0 /usr/lib/gcc/avr/4.5.3/avr6/libgcc.a(_fixunssfsi.o)
 .bss           0x0000000000800974        0x0 /usr/lib/gcc/avr/4.5.3/avr6/libgcc.a(_addsub_sf.o)
 .bss           0x0000000000800974        0x0 /usr/lib/gcc/avr/4.5.3/avr6/libgcc.a(_mul_sf.o)
 .bss           0x0000000000800974        0x0 /usr/lib/gcc/avr/4.5.3/avr6/libgcc.a(_div_sf.o)
 .bss           0x0000000000800974        0x0 /usr/lib/gcc/avr/4.5.3/avr6/libgcc.a(_ge_sf.o)
 .bss           0x0000000000800974        0x0 /usr/lib/gcc/avr/4.5.3/avr6/libgcc.a(_lt_sf.o)
 .bss           0x0000000000800974        0x0 /usr/lib/gcc/avr/4.5.3/avr6/libgcc.a(_si_to_sf.o)
 .bss           0x0000000000800974        0x0 /usr/lib/gcc/avr/4.5.3/avr6/libgcc.a(_sf_to_si.o)
 .bss           0x0000000000800974        0x0 /usr/lib/gcc/avr/4.5.3/avr6/libgcc.a(_thenan_sf.o)
 .bss           0x0000000000800974        0x0 /usr/lib/gcc/avr/4.5.3/avr6/libgcc.a(_usi_to_sf.o)
 .bss           0x0000000000800974        0x0 /usr/lib/gcc/avr/4.5.3/avr6/libgcc.a(_prologue.o)
 .bss           0x0000000000800974        0x0 /usr/lib/gcc/avr/4.5.3/avr6/libgcc.a(_epilogue.o)
 .bss           0x0000000000800974        0x0 /usr/lib/gcc/avr/4.5.3/avr6/libgcc.a(_tablejump_elpm.o)
 .bss           0x0000000000800974        0x0 /usr/lib/gcc/avr/4.5.3/avr6/libgcc.a(_clzsi2.o)
 .bss           0x0000000000800974        0x0 /usr/lib/gcc/avr/4.5.3/avr6/libgcc.a(_pack_sf.o)
 .bss           0x0000000000800974        0x0 /usr/lib/gcc/avr/4.5.3/avr6/libgcc.a(_unpack_sf.o)
 .bss           0x0000000000800974        0x0 /usr/lib/gcc/avr/4.5.3/avr6/libgcc.a(_fpcmp_parts_sf.o)
 .bss           0x0000000000800974        0x0 /usr/lib/gcc/avr/4.5.3/avr6/libgcc.a(_clz.o)
 .bss           0x0000000000800974        0x0 /usr/lib/gcc/avr/4.5.3/../../../avr/lib/avr6/libc.a(dtostrf.o)
 .bss           0x0000000000800974        0x0 /usr/lib/gcc/avr/4.5.3/../../../avr/lib/avr6/libc.a(malloc.o)
 .bss           0x0000000000800974        0x0 /usr/lib/gcc/avr/4.5.3/../../../avr/lib/avr6/libc.a(random.o)
 .bss           0x0000000000800974        0x0 /usr/lib/gcc/avr/4.5.3/../../../avr/lib/avr6/libc.a(realloc.o)
 .bss           0x0000000000800974        0x0 /usr/lib/gcc/avr/4.5.3/../../../avr/lib/avr6/libc.a(atof.o)
 .bss           0x0000000000800974        0x0 /usr/lib/gcc/avr/4.5.3/../../../avr/lib/avr6/libc.a(atoi.o)
 .bss           0x0000000000800974        0x0 /usr/lib/gcc/avr/4.5.3/../../../avr/lib/avr6/libc.a(atol.o)
 .bss           0x0000000000800974        0x0 /usr/lib/gcc/avr/4.5.3/../../../avr/lib/avr6/libc.a(isspace.o)
 .bss           0x0000000000800974        0x0 /usr/lib/gcc/avr/4.5.3/../../../avr/lib/avr6/libc.a(tolower.o)
 .bss           0x0000000000800974        0x0 /usr/lib/gcc/avr/4.5.3/../../../avr/lib/avr6/libc.a(toupper.o)
 .bss           0x0000000000800974        0x2 /usr/lib/gcc/avr/4.5.3/../../../avr/lib/avr6/libc.a(strtok.o)
 .bss           0x0000000000800976        0x0 /usr/lib/gcc/avr/4.5.3/../../../avr/lib/avr6/libc.a(memcmp.o)
 .bss           0x0000000000800976        0x0 /usr/lib/gcc/avr/4.5.3/../../../avr/lib/avr6/libc.a(memcpy.o)
 .bss           0x0000000000800976        0x0 /usr/lib/gcc/avr/4.5.3/../../../avr/lib/avr6/libc.a(memmove.o)
 .bss           0x0000000000800976        0x0 /usr/lib/gcc/avr/4.5.3/../../../avr/lib/avr6/libc.a(memset.o)
 .bss           0x0000000000800976        0x0 /usr/lib/gcc/avr/4.5.3/../../../avr/lib/avr6/libc.a(strchr.o)
 .bss           0x0000000000800976        0x0 /usr/lib/gcc/avr/4.5.3/../../../avr/lib/avr6/libc.a(strcmp.o)
 .bss           0x0000000000800976        0x0 /usr/lib/gcc/avr/4.5.3/../../../avr/lib/avr6/libc.a(strcpy.o)
 .bss           0x0000000000800976        0x0 /usr/lib/gcc/avr/4.5.3/../../../avr/lib/avr6/libc.a(strncmp.o)
 .bss           0x0000000000800976        0x0 /usr/lib/gcc/avr/4.5.3/../../../avr/lib/avr6/libc.a(strncpy.o)
 .bss           0x0000000000800976        0x0 /usr/lib/gcc/avr/4.5.3/../../../avr/lib/avr6/libc.a(strrchr.o)
 .bss           0x0000000000800976        0x0 /usr/lib/gcc/avr/4.5.3/../../../avr/lib/avr6/libc.a(strstr.o)
 .bss           0x0000000000800976        0x0 /usr/lib/gcc/avr/4.5.3/../../../avr/lib/avr6/libc.a(strtok_r.o)
 .bss           0x0000000000800976        0x0 /usr/lib/gcc/avr/4.5.3/../../../avr/lib/avr6/libc.a(itoa.o)
 .bss           0x0000000000800976        0x0 /usr/lib/gcc/avr/4.5.3/../../../avr/lib/avr6/libc.a(ltoa.o)
 .bss           0x0000000000800976        0x0 /usr/lib/gcc/avr/4.5.3/../../../avr/lib/avr6/libc.a(mulsi10.o)
 .bss           0x0000000000800976        0x0 /usr/lib/gcc/avr/4.5.3/../../../avr/lib/avr6/libc.a(mul10.o)
 .bss           0x0000000000800976        0x0 /usr/lib/gcc/avr/4.5.3/../../../avr/lib/avr6/libc.a(ultoa.o)
 .bss           0x0000000000800976        0x0 /usr/lib/gcc/avr/4.5.3/../../../avr/lib/avr6/libc.a(utoa.o)
 .bss           0x0000000000800976        0x0 /usr/lib/gcc/avr/4.5.3/../../../avr/lib/avr6/libc.a(sprintf.o)
 .bss           0x0000000000800976        0x0 /usr/lib/gcc/avr/4.5.3/../../../avr/lib/avr6/libc.a(vfprintf_std.o)
 .bss           0x0000000000800976        0x0 /usr/lib/gcc/avr/4.5.3/../../../avr/lib/avr6/libc.a(eerd_byte_atmega2560.o)
 .bss           0x0000000000800976        0x0 /usr/lib/gcc/avr/4.5.3/../../../avr/lib/avr6/libc.a(eewr_byte_atmega2560.o)
 .bss           0x0000000000800976        0x0 /usr/lib/gcc/avr/4.5.3/../../../avr/lib/avr6/libc.a(dtoa_prf.o)
 .bss           0x0000000000800976        0x0 /usr/lib/gcc/avr/4.5.3/../../../avr/lib/avr6/libc.a(strtod.o)
 .bss           0x0000000000800976        0x0 /usr/lib/gcc/avr/4.5.3/../../../avr/lib/avr6/libc.a(ftoa_engine.o)
 .bss           0x0000000000800976        0x0 /usr/lib/gcc/avr/4.5.3/../../../avr/lib/avr6/libc.a(cty_isfalse.o)
 .bss           0x0000000000800976        0x0 /usr/lib/gcc/avr/4.5.3/../../../avr/lib/avr6/libc.a(strncasecmp_P.o)
 .bss           0x0000000000800976        0x0 /usr/lib/gcc/avr/4.5.3/../../../avr/lib/avr6/libc.a(strnlen_P.o)
 .bss           0x0000000000800976        0x0 /usr/lib/gcc/avr/4.5.3/../../../avr/lib/avr6/libc.a(strnlen.o)
 .bss           0x0000000000800976        0x0 /usr/lib/gcc/avr/4.5.3/../../../avr/lib/avr6/libc.a(strrev.o)
 .bss           0x0000000000800976        0x0 /usr/lib/gcc/avr/4.5.3/../../../avr/lib/avr6/libc.a(fputc.o)
 .bss           0x0000000000800976        0x0 /usr/lib/gcc/avr/4.5.3/../../../avr/lib/avr6/libc.a(ultoa_invert.o)
 .bss           0x0000000000800976        0x0 /usr/lib/gcc/avr/4.5.3/../../../avr/lib/avr6/libc.a(cmpsf2.o)
 .bss           0x0000000000800976        0x0 /usr/lib/gcc/avr/4.5.3/../../../avr/lib/avr6/libc.a(fp_cmp.o)
 .bss           0x0000000000800976        0x0 /usr/lib/gcc/avr/4.5.3/../../../avr/lib/avr6/libc.a(errno.o)
 *(.bss*)
 .bss._ZL11INADDR_NONE
                0x0000000000800976        0x6 ./src/Config.o
 .bss._ZL11INADDR_NONE
                0x000000000080097c        0x6 ./src/main.o
 .bss.oneWire   0x0000000000800982        0xe ./src/main.o
                0x0000000000800982                oneWire
 .bss.sensors   0x0000000000800990       0x13 ./src/main.o
                0x0000000000800990                sensors
 .bss.apiKey    0x00000000008009a3        0x7 ./src/main.o
                0x00000000008009a3                apiKey
 .bss.ipAddress
                0x00000000008009aa        0xf ./src/main.o
                0x00000000008009aa                ipAddress
 .bss.netmask   0x00000000008009b9        0xf ./src/main.o
                0x00000000008009b9                netmask
 .bss.gateway   0x00000000008009c8        0xf ./src/main.o
                0x00000000008009c8                gateway
 .bss.httpServer
                0x00000000008009d7        0x6 ./src/main.o
                0x00000000008009d7                httpServer
 .bss.httpClient
                0x00000000008009dd        0xd ./src/main.o
                0x00000000008009dd                httpClient
 .bss.smtpClient
                0x00000000008009ea        0xd ./src/main.o
                0x00000000008009ea                smtpClient
 .bss.RTC       0x00000000008009f7        0x1 ./src/main.o
                0x00000000008009f7                RTC
 .bss.now       0x00000000008009f8        0xc ./src/main.o
                0x00000000008009f8                now
 .bss.yesterday
                0x0000000000800a04        0x2 ./src/main.o
                0x0000000000800a04                yesterday
 .bss.dateString
                0x0000000000800a06        0x7 ./src/main.o
                0x0000000000800a06                dateString
 .bss.timeString
                0x0000000000800a0d        0x7 ./src/main.o
                0x0000000000800a0d                timeString
 .bss.dateTimeString
                0x0000000000800a14        0x7 ./src/main.o
                0x0000000000800a14                dateTimeString
 .bss.maintenanceInProgress
                0x0000000000800a1b        0x1 ./src/main.o
                0x0000000000800a1b                maintenanceInProgress
 .bss.pH        0x0000000000800a1c        0x7 ./src/main.o
                0x0000000000800a1c                pH
 .bss.serialChar
                0x0000000000800a23        0x1 ./src/main.o
                0x0000000000800a23                serialChar
 .bss._ZN10RTC_Millis6offsetE
                0x0000000000800a24        0x4 ./lib/Chronodot.o
                0x0000000000800a24                _ZN10RTC_Millis6offsetE
 .bss._ZL9twi_state
                0x0000000000800a28        0x1 ./arduinolib/Wire/utility/twi.o
 .bss._ZL9twi_slarw
                0x0000000000800a29        0x1 ./arduinolib/Wire/utility/twi.o
 .bss._ZL12twi_sendStop
                0x0000000000800a2a        0x1 ./arduinolib/Wire/utility/twi.o
 .bss._ZL14twi_inRepStart
                0x0000000000800a2b        0x1 ./arduinolib/Wire/utility/twi.o
 .bss._ZL19twi_onSlaveTransmit
                0x0000000000800a2c        0x2 ./arduinolib/Wire/utility/twi.o
 .bss._ZL18twi_onSlaveReceive
                0x0000000000800a2e        0x2 ./arduinolib/Wire/utility/twi.o
 .bss._ZL16twi_masterBuffer
                0x0000000000800a30       0x20 ./arduinolib/Wire/utility/twi.o
 .bss._ZL21twi_masterBufferIndex
                0x0000000000800a50        0x1 ./arduinolib/Wire/utility/twi.o
 .bss._ZL22twi_masterBufferLength
                0x0000000000800a51        0x1 ./arduinolib/Wire/utility/twi.o
 .bss._ZL12twi_txBuffer
                0x0000000000800a52       0x20 ./arduinolib/Wire/utility/twi.o
 .bss._ZL17twi_txBufferIndex
                0x0000000000800a72        0x1 ./arduinolib/Wire/utility/twi.o
 .bss._ZL18twi_txBufferLength
                0x0000000000800a73        0x1 ./arduinolib/Wire/utility/twi.o
 .bss._ZL12twi_rxBuffer
                0x0000000000800a74       0x20 ./arduinolib/Wire/utility/twi.o
 .bss._ZL17twi_rxBufferIndex
                0x0000000000800a94        0x1 ./arduinolib/Wire/utility/twi.o
 .bss._ZL9twi_error
                0x0000000000800a95        0x1 ./arduinolib/Wire/utility/twi.o
 .bss._ZN7TwoWire8rxBufferE
                0x0000000000800a96       0x20 ./arduinolib/Wire/Wire.o
                0x0000000000800a96                _ZN7TwoWire8rxBufferE
 .bss._ZN7TwoWire13rxBufferIndexE
                0x0000000000800ab6        0x1 ./arduinolib/Wire/Wire.o
                0x0000000000800ab6                _ZN7TwoWire13rxBufferIndexE
 .bss._ZN7TwoWire14rxBufferLengthE
                0x0000000000800ab7        0x1 ./arduinolib/Wire/Wire.o
                0x0000000000800ab7                _ZN7TwoWire14rxBufferLengthE
 .bss._ZN7TwoWire9txAddressE
                0x0000000000800ab8        0x1 ./arduinolib/Wire/Wire.o
                0x0000000000800ab8                _ZN7TwoWire9txAddressE
 .bss._ZN7TwoWire8txBufferE
                0x0000000000800ab9       0x20 ./arduinolib/Wire/Wire.o
                0x0000000000800ab9                _ZN7TwoWire8txBufferE
 .bss._ZN7TwoWire13txBufferIndexE
                0x0000000000800ad9        0x1 ./arduinolib/Wire/Wire.o
                0x0000000000800ad9                _ZN7TwoWire13txBufferIndexE
 .bss._ZN7TwoWire14txBufferLengthE
                0x0000000000800ada        0x1 ./arduinolib/Wire/Wire.o
                0x0000000000800ada                _ZN7TwoWire14txBufferLengthE
 .bss._ZN7TwoWire12transmittingE
                0x0000000000800adb        0x1 ./arduinolib/Wire/Wire.o
                0x0000000000800adb                _ZN7TwoWire12transmittingE
 .bss._ZN7TwoWire14user_onRequestE
                0x0000000000800adc        0x2 ./arduinolib/Wire/Wire.o
                0x0000000000800adc                _ZN7TwoWire14user_onRequestE
 .bss._ZN7TwoWire14user_onReceiveE
                0x0000000000800ade        0x2 ./arduinolib/Wire/Wire.o
                0x0000000000800ade                _ZN7TwoWire14user_onReceiveE
 .bss.Wire      0x0000000000800ae0        0xc ./arduinolib/Wire/Wire.o
                0x0000000000800ae0                Wire
 .bss.SPI       0x0000000000800aec        0x1 ./arduinolib/SPI/SPI.o
                0x0000000000800aec                SPI
 .bss._ZL10local_port
                0x0000000000800aed        0x2 ./arduinolib/Ethernet/utility/socket.o
 .bss.W5100     0x0000000000800aef       0x10 ./arduinolib/Ethernet/utility/w5100.o
                0x0000000000800aef                W5100
 .bss._ZL11INADDR_NONE
                0x0000000000800aff        0x6 ./arduinolib/Ethernet/Dhcp.o
 .bss._ZL11INADDR_NONE
                0x0000000000800b05        0x6 ./arduinolib/Ethernet/Dns.o
 .bss._ZL11INADDR_NONE
                0x0000000000800b0b        0x6 ./arduinolib/Ethernet/Ethernet.o
 .bss._ZN13EthernetClass6_stateE
                0x0000000000800b11        0x4 ./arduinolib/Ethernet/Ethernet.o
                0x0000000000800b11                _ZN13EthernetClass6_stateE
 .bss._ZN13EthernetClass12_server_portE
                0x0000000000800b15        0x8 ./arduinolib/Ethernet/Ethernet.o
                0x0000000000800b15                _ZN13EthernetClass12_server_portE
 .bss.Ethernet  0x0000000000800b1d        0x6 ./arduinolib/Ethernet/Ethernet.o
                0x0000000000800b1d                Ethernet
 .bss._ZL11INADDR_NONE
                0x0000000000800b23        0x6 ./arduinolib/Ethernet/EthernetClient.o
 .bss._ZL11INADDR_NONE
                0x0000000000800b29        0x6 ./arduinolib/Ethernet/EthernetServer.o
 .bss._ZL11INADDR_NONE
                0x0000000000800b2f        0x6 ./arduinolib/Ethernet/EthernetUdp.o
 .bss.EEPROM    0x0000000000800b35        0x1 ./arduinolib/EEPROM/EEPROM.o
                0x0000000000800b35                EEPROM
 .bss.rx_buffer
                0x0000000000800b36       0x44 /storage/apps/eclipse-avr/workspace/ArduinoCore-1.0/Mega2560/libArduinoCore-1.0.a(HardwareSerial.o)
                0x0000000000800b36                rx_buffer
 .bss.tx_buffer
                0x0000000000800b7a       0x44 /storage/apps/eclipse-avr/workspace/ArduinoCore-1.0/Mega2560/libArduinoCore-1.0.a(HardwareSerial.o)
                0x0000000000800b7a                tx_buffer
 .bss.rx_buffer1
                0x0000000000800bbe       0x44 /storage/apps/eclipse-avr/workspace/ArduinoCore-1.0/Mega2560/libArduinoCore-1.0.a(HardwareSerial.o)
                0x0000000000800bbe                rx_buffer1
 .bss.tx_buffer1
                0x0000000000800c02       0x44 /storage/apps/eclipse-avr/workspace/ArduinoCore-1.0/Mega2560/libArduinoCore-1.0.a(HardwareSerial.o)
                0x0000000000800c02                tx_buffer1
 .bss.rx_buffer2
                0x0000000000800c46       0x44 /storage/apps/eclipse-avr/workspace/ArduinoCore-1.0/Mega2560/libArduinoCore-1.0.a(HardwareSerial.o)
                0x0000000000800c46                rx_buffer2
 .bss.tx_buffer2
                0x0000000000800c8a       0x44 /storage/apps/eclipse-avr/workspace/ArduinoCore-1.0/Mega2560/libArduinoCore-1.0.a(HardwareSerial.o)
                0x0000000000800c8a                tx_buffer2
 .bss.rx_buffer3
                0x0000000000800cce       0x44 /storage/apps/eclipse-avr/workspace/ArduinoCore-1.0/Mega2560/libArduinoCore-1.0.a(HardwareSerial.o)
                0x0000000000800cce                rx_buffer3
 .bss.tx_buffer3
                0x0000000000800d12       0x44 /storage/apps/eclipse-avr/workspace/ArduinoCore-1.0/Mega2560/libArduinoCore-1.0.a(HardwareSerial.o)
                0x0000000000800d12                tx_buffer3
 .bss.Serial    0x0000000000800d56       0x1f /storage/apps/eclipse-avr/workspace/ArduinoCore-1.0/Mega2560/libArduinoCore-1.0.a(HardwareSerial.o)
                0x0000000000800d56                Serial
 .bss.Serial1   0x0000000000800d75       0x1f /storage/apps/eclipse-avr/workspace/ArduinoCore-1.0/Mega2560/libArduinoCore-1.0.a(HardwareSerial.o)
                0x0000000000800d75                Serial1
 .bss.Serial2   0x0000000000800d94       0x1f /storage/apps/eclipse-avr/workspace/ArduinoCore-1.0/Mega2560/libArduinoCore-1.0.a(HardwareSerial.o)
                0x0000000000800d94                Serial2
 .bss.Serial3   0x0000000000800db3       0x1f /storage/apps/eclipse-avr/workspace/ArduinoCore-1.0/Mega2560/libArduinoCore-1.0.a(HardwareSerial.o)
                0x0000000000800db3                Serial3
 .bss._ZL11INADDR_NONE
                0x0000000000800dd2        0x6 /storage/apps/eclipse-avr/workspace/ArduinoCore-1.0/Mega2560/libArduinoCore-1.0.a(IPAddress.o)
 .bss._ZZN6StringixEjE19dummy_writable_char
                0x0000000000800dd8        0x1 /storage/apps/eclipse-avr/workspace/ArduinoCore-1.0/Mega2560/libArduinoCore-1.0.a(WString.o)
 .bss.timer0_overflow_count
                0x0000000000800dd9        0x4 /storage/apps/eclipse-avr/workspace/ArduinoCore-1.0/Mega2560/libArduinoCore-1.0.a(wiring.o)
                0x0000000000800dd9                timer0_overflow_count
 .bss.timer0_millis
                0x0000000000800ddd        0x4 /storage/apps/eclipse-avr/workspace/ArduinoCore-1.0/Mega2560/libArduinoCore-1.0.a(wiring.o)
                0x0000000000800ddd                timer0_millis
 .bss.timer0_fract
                0x0000000000800de1        0x1 /storage/apps/eclipse-avr/workspace/ArduinoCore-1.0/Mega2560/libArduinoCore-1.0.a(wiring.o)
 *(COMMON)
 COMMON         0x0000000000800de2        0x4 /usr/lib/gcc/avr/4.5.3/../../../avr/lib/avr6/libc.a(malloc.o)
                0x0000000000800de2                __brkval
                0x0000000000800de4                __flp
 COMMON         0x0000000000800de6        0x2 /usr/lib/gcc/avr/4.5.3/../../../avr/lib/avr6/libc.a(errno.o)
                0x0000000000800de6                errno
                0x0000000000800de8                PROVIDE (__bss_end, .)
                0x00000000000111aa                __data_load_start = LOADADDR (.data)
                0x000000000001191e                __data_load_end = (__data_load_start + SIZEOF (.data))

.noinit         0x0000000000800de8        0x0
                0x0000000000800de8                PROVIDE (__noinit_start, .)
 *(.noinit*)
                0x0000000000800de8                PROVIDE (__noinit_end, .)
                0x0000000000800de8                _end = .
                0x0000000000800de8                PROVIDE (__heap_start, .)

.eeprom         0x0000000000810000        0x0
 *(.eeprom*)
                0x0000000000810000                __eeprom_end = .

.fuse
 *(.fuse)
 *(.lfuse)
 *(.hfuse)
 *(.efuse)

.lock
 *(.lock*)

.signature
 *(.signature*)

.stab           0x0000000000000000    0x22818
 *(.stab)
 .stab          0x0000000000000000      0x6e4 /usr/lib/gcc/avr/4.5.3/../../../avr/lib/avr6/crtm2560.o
 .stab          0x00000000000006e4      0x834 ./src/Config.o
                                        0x840 (size before relaxing)
 .stab          0x0000000000000f18      0x984 ./src/Gateway.o
                                        0x990 (size before relaxing)
 .stab          0x000000000000189c      0x984 ./src/IpAddress.o
                                        0x990 (size before relaxing)
 .stab          0x0000000000002220      0x984 ./src/Netmask.o
                                        0x990 (size before relaxing)
 .stab          0x0000000000002ba4     0x1c8c ./src/main.o
                                       0x1c98 (size before relaxing)
 .stab          0x0000000000004830     0x144c ./lib/Chronodot.o
                                       0x1458 (size before relaxing)
 .stab          0x0000000000005c7c     0x1fa4 ./lib/DallasTemperature.o
                                       0x1fb0 (size before relaxing)
 .stab          0x0000000000007c20     0x159c ./lib/OneWire.o
                                       0x15a8 (size before relaxing)
 .stab          0x00000000000091bc     0x1104 ./arduinolib/Wire/utility/twi.o
                                       0x1110 (size before relaxing)
 .stab          0x000000000000a2c0      0xfb4 ./arduinolib/Wire/Wire.o
                                        0xfc0 (size before relaxing)
 .stab          0x000000000000b274      0x744 ./arduinolib/SPI/SPI.o
                                        0x750 (size before relaxing)
 .stab          0x000000000000b9b8     0x17b8 ./arduinolib/Ethernet/utility/socket.o
                                       0x17c4 (size before relaxing)
 .stab          0x000000000000d170     0x13bc ./arduinolib/Ethernet/utility/w5100.o
                                       0x13c8 (size before relaxing)
 .stab          0x000000000000e52c     0x14b8 ./arduinolib/Ethernet/Dhcp.o
                                       0x14c4 (size before relaxing)
 .stab          0x000000000000f9e4     0x1518 ./arduinolib/Ethernet/Dns.o
                                       0x1524 (size before relaxing)
 .stab          0x0000000000010efc     0x11dc ./arduinolib/Ethernet/Ethernet.o
                                       0x11e8 (size before relaxing)
 .stab          0x00000000000120d8     0x129c ./arduinolib/Ethernet/EthernetClient.o
                                       0x12a8 (size before relaxing)
 .stab          0x0000000000013374      0xe34 ./arduinolib/Ethernet/EthernetServer.o
                                        0xe40 (size before relaxing)
 .stab          0x00000000000141a8     0x1188 ./arduinolib/Ethernet/EthernetUdp.o
                                       0x1194 (size before relaxing)
 .stab          0x0000000000015330      0x660 ./arduinolib/EEPROM/EEPROM.o
                                        0x66c (size before relaxing)
 .stab          0x0000000000015990     0x1458 /storage/apps/eclipse-avr/workspace/ArduinoCore-1.0/Mega2560/libArduinoCore-1.0.a(HardwareSerial.o)
                                       0x1464 (size before relaxing)
 .stab          0x0000000000016de8      0x960 /storage/apps/eclipse-avr/workspace/ArduinoCore-1.0/Mega2560/libArduinoCore-1.0.a(IPAddress.o)
                                        0x96c (size before relaxing)
 .stab          0x0000000000017748     0x11e8 /storage/apps/eclipse-avr/workspace/ArduinoCore-1.0/Mega2560/libArduinoCore-1.0.a(Print.o)
                                       0x11f4 (size before relaxing)
 .stab          0x0000000000018930      0x384 /storage/apps/eclipse-avr/workspace/ArduinoCore-1.0/Mega2560/libArduinoCore-1.0.a(WMath.o)
                                        0x390 (size before relaxing)
 .stab          0x0000000000018cb4     0x2424 /storage/apps/eclipse-avr/workspace/ArduinoCore-1.0/Mega2560/libArduinoCore-1.0.a(WString.o)
                                       0x2430 (size before relaxing)
 .stab          0x000000000001b0d8      0x2f4 /storage/apps/eclipse-avr/workspace/ArduinoCore-1.0/Mega2560/libArduinoCore-1.0.a(new.o)
                                        0x300 (size before relaxing)
 .stab          0x000000000001b3cc      0xa20 /storage/apps/eclipse-avr/workspace/ArduinoCore-1.0/Mega2560/libArduinoCore-1.0.a(wiring.o)
                                        0xa2c (size before relaxing)
 .stab          0x000000000001bdec      0x654 /storage/apps/eclipse-avr/workspace/ArduinoCore-1.0/Mega2560/libArduinoCore-1.0.a(wiring_analog.o)
                                        0x990 (size before relaxing)
 .stab          0x000000000001c440      0x75c /storage/apps/eclipse-avr/workspace/ArduinoCore-1.0/Mega2560/libArduinoCore-1.0.a(wiring_digital.o)
                                        0xa98 (size before relaxing)
 .stab          0x000000000001cb9c      0x3d8 /usr/lib/gcc/avr/4.5.3/../../../avr/lib/avr6/libc.a(dtostrf.o)
                                        0x408 (size before relaxing)
 .stab          0x000000000001cf74      0x57c /usr/lib/gcc/avr/4.5.3/../../../avr/lib/avr6/libc.a(malloc.o)
                                        0x75c (size before relaxing)
 .stab          0x000000000001d4f0      0x2d0 /usr/lib/gcc/avr/4.5.3/../../../avr/lib/avr6/libc.a(random.o)
                                        0x330 (size before relaxing)
 .stab          0x000000000001d7c0      0x3cc /usr/lib/gcc/avr/4.5.3/../../../avr/lib/avr6/libc.a(realloc.o)
                                        0x5c4 (size before relaxing)
 .stab          0x000000000001db8c       0x3c /usr/lib/gcc/avr/4.5.3/../../../avr/lib/avr6/libc.a(atof.o)
                                         0x48 (size before relaxing)
 .stab          0x000000000001dbc8      0x174 /usr/lib/gcc/avr/4.5.3/../../../avr/lib/avr6/libc.a(atoi.o)
                                        0x180 (size before relaxing)
 .stab          0x000000000001dd3c      0x1e0 /usr/lib/gcc/avr/4.5.3/../../../avr/lib/avr6/libc.a(atol.o)
                                        0x1ec (size before relaxing)
 .stab          0x000000000001df1c       0x9c /usr/lib/gcc/avr/4.5.3/../../../avr/lib/avr6/libc.a(isspace.o)
                                         0xa8 (size before relaxing)
 .stab          0x000000000001dfb8       0x9c /usr/lib/gcc/avr/4.5.3/../../../avr/lib/avr6/libc.a(tolower.o)
                                         0xa8 (size before relaxing)
 .stab          0x000000000001e054       0x9c /usr/lib/gcc/avr/4.5.3/../../../avr/lib/avr6/libc.a(toupper.o)
                                         0xa8 (size before relaxing)
 .stab          0x000000000001e0f0      0x180 /usr/lib/gcc/avr/4.5.3/../../../avr/lib/avr6/libc.a(strtok.o)
                                        0x1a4 (size before relaxing)
 .stab          0x000000000001e270       0xb4 /usr/lib/gcc/avr/4.5.3/../../../avr/lib/avr6/libc.a(memcmp.o)
                                         0xc0 (size before relaxing)
 .stab          0x000000000001e324       0x84 /usr/lib/gcc/avr/4.5.3/../../../avr/lib/avr6/libc.a(memcpy.o)
                                         0x90 (size before relaxing)
 .stab          0x000000000001e3a8       0xe4 /usr/lib/gcc/avr/4.5.3/../../../avr/lib/avr6/libc.a(memmove.o)
                                         0xf0 (size before relaxing)
 .stab          0x000000000001e48c       0x6c /usr/lib/gcc/avr/4.5.3/../../../avr/lib/avr6/libc.a(memset.o)
                                         0x78 (size before relaxing)
 .stab          0x000000000001e4f8       0x9c /usr/lib/gcc/avr/4.5.3/../../../avr/lib/avr6/libc.a(strchr.o)
                                         0xa8 (size before relaxing)
 .stab          0x000000000001e594       0x84 /usr/lib/gcc/avr/4.5.3/../../../avr/lib/avr6/libc.a(strcmp.o)
                                         0x90 (size before relaxing)
 .stab          0x000000000001e618       0x6c /usr/lib/gcc/avr/4.5.3/../../../avr/lib/avr6/libc.a(strcpy.o)
                                         0x78 (size before relaxing)
 .stab          0x000000000001e684       0xc0 /usr/lib/gcc/avr/4.5.3/../../../avr/lib/avr6/libc.a(strncmp.o)
                                         0xcc (size before relaxing)
 .stab          0x000000000001e744       0xcc /usr/lib/gcc/avr/4.5.3/../../../avr/lib/avr6/libc.a(strncpy.o)
                                         0xd8 (size before relaxing)
 .stab          0x000000000001e810       0x9c /usr/lib/gcc/avr/4.5.3/../../../avr/lib/avr6/libc.a(strrchr.o)
                                         0xa8 (size before relaxing)
 .stab          0x000000000001e8ac      0x150 /usr/lib/gcc/avr/4.5.3/../../../avr/lib/avr6/libc.a(strstr.o)
                                        0x15c (size before relaxing)
 .stab          0x000000000001e9fc      0x204 /usr/lib/gcc/avr/4.5.3/../../../avr/lib/avr6/libc.a(strtok_r.o)
                                        0x210 (size before relaxing)
 .stab          0x000000000001ec00      0x1b0 /usr/lib/gcc/avr/4.5.3/../../../avr/lib/avr6/libc.a(itoa.o)
                                        0x1bc (size before relaxing)
 .stab          0x000000000001edb0      0x294 /usr/lib/gcc/avr/4.5.3/../../../avr/lib/avr6/libc.a(ltoa.o)
                                        0x2a0 (size before relaxing)
 .stab          0x000000000001f044      0x114 /usr/lib/gcc/avr/4.5.3/../../../avr/lib/avr6/libc.a(mulsi10.o)
                                        0x120 (size before relaxing)
 .stab          0x000000000001f158       0x78 /usr/lib/gcc/avr/4.5.3/../../../avr/lib/avr6/libc.a(mul10.o)
                                         0x84 (size before relaxing)
 .stab          0x000000000001f1d0      0x1e0 /usr/lib/gcc/avr/4.5.3/../../../avr/lib/avr6/libc.a(ultoa.o)
                                        0x1ec (size before relaxing)
 .stab          0x000000000001f3b0      0x12c /usr/lib/gcc/avr/4.5.3/../../../avr/lib/avr6/libc.a(utoa.o)
                                        0x138 (size before relaxing)
 .stab          0x000000000001f4dc      0x1f8 /usr/lib/gcc/avr/4.5.3/../../../avr/lib/avr6/libc.a(sprintf.o)
                                        0x3d8 (size before relaxing)
 .stab          0x000000000001f6d4      0xab0 /usr/lib/gcc/avr/4.5.3/../../../avr/lib/avr6/libc.a(vfprintf_std.o)
                                        0xcd8 (size before relaxing)
 .stab          0x0000000000020184       0x90 /usr/lib/gcc/avr/4.5.3/../../../avr/lib/avr6/libc.a(eerd_byte_atmega2560.o)
                                         0x9c (size before relaxing)
 .stab          0x0000000000020214       0xe4 /usr/lib/gcc/avr/4.5.3/../../../avr/lib/avr6/libc.a(eewr_byte_atmega2560.o)
                                         0xf0 (size before relaxing)
 .stab          0x00000000000202f8      0x774 /usr/lib/gcc/avr/4.5.3/../../../avr/lib/avr6/libc.a(dtoa_prf.o)
                                        0x960 (size before relaxing)
 .stab          0x0000000000020a6c      0x60c /usr/lib/gcc/avr/4.5.3/../../../avr/lib/avr6/libc.a(strtod.o)
                                        0x888 (size before relaxing)
 .stab          0x0000000000021078      0xa38 /usr/lib/gcc/avr/4.5.3/../../../avr/lib/avr6/libc.a(ftoa_engine.o)
                                        0xa44 (size before relaxing)
 .stab          0x0000000000021ab0       0x60 /usr/lib/gcc/avr/4.5.3/../../../avr/lib/avr6/libc.a(cty_isfalse.o)
                                         0x6c (size before relaxing)
 .stab          0x0000000000021b10      0x138 /usr/lib/gcc/avr/4.5.3/../../../avr/lib/avr6/libc.a(strncasecmp_P.o)
                                        0x144 (size before relaxing)
 .stab          0x0000000000021c48       0x9c /usr/lib/gcc/avr/4.5.3/../../../avr/lib/avr6/libc.a(strnlen_P.o)
                                         0xa8 (size before relaxing)
 .stab          0x0000000000021ce4       0x9c /usr/lib/gcc/avr/4.5.3/../../../avr/lib/avr6/libc.a(strnlen.o)
                                         0xa8 (size before relaxing)
 .stab          0x0000000000021d80       0xd8 /usr/lib/gcc/avr/4.5.3/../../../avr/lib/avr6/libc.a(strrev.o)
                                         0xe4 (size before relaxing)
 .stab          0x0000000000021e58      0x1e0 /usr/lib/gcc/avr/4.5.3/../../../avr/lib/avr6/libc.a(fputc.o)
                                        0x3c0 (size before relaxing)
 .stab          0x0000000000022038      0x480 /usr/lib/gcc/avr/4.5.3/../../../avr/lib/avr6/libc.a(ultoa_invert.o)
                                        0x48c (size before relaxing)
 .stab          0x00000000000224b8       0x90 /usr/lib/gcc/avr/4.5.3/../../../avr/lib/avr6/libc.a(cmpsf2.o)
                                         0x9c (size before relaxing)
 .stab          0x0000000000022548      0x1e0 /usr/lib/gcc/avr/4.5.3/../../../avr/lib/avr6/libc.a(fp_cmp.o)
                                        0x1ec (size before relaxing)
 .stab          0x0000000000022728       0xf0 /usr/lib/gcc/avr/4.5.3/../../../avr/lib/avr6/libc.a(errno.o)
                                         0xfc (size before relaxing)

.stabstr        0x0000000000000000     0xe3f5
 *(.stabstr)
 .stabstr       0x0000000000000000     0xe3f5 /usr/lib/gcc/avr/4.5.3/../../../avr/lib/avr6/crtm2560.o

.stab.excl
 *(.stab.excl)

.stab.exclstr
 *(.stab.exclstr)

.stab.index
 *(.stab.index)

.stab.indexstr
 *(.stab.indexstr)

.comment
 *(.comment)

.debug
 *(.debug)

.line
 *(.line)

.debug_srcinfo
 *(.debug_srcinfo)

.debug_sfnames
 *(.debug_sfnames)

.debug_aranges
 *(.debug_aranges)

.debug_pubnames
 *(.debug_pubnames)

.debug_info
 *(.debug_info)
 *(.gnu.linkonce.wi.*)

.debug_abbrev
 *(.debug_abbrev)

.debug_line
 *(.debug_line)

.debug_frame
 *(.debug_frame)

.debug_str
 *(.debug_str)

.debug_loc
 *(.debug_loc)

.debug_macinfo
 *(.debug_macinfo)
OUTPUT(aquariumpilot-aquarium.elf elf32-avr)
LOAD linker stubs

Cross Reference Table

Symbol                                            File
Chronodot::adjust(DateTime const&)                ./lib/Chronodot.o
Chronodot::begin()                                ./lib/Chronodot.o
                                                  ./src/main.o
Chronodot::isrunning()                            ./lib/Chronodot.o
Chronodot::now()                                  ./lib/Chronodot.o
                                                  ./src/main.o
Client::Client()                                  ./arduinolib/Ethernet/EthernetClient.o
Client::Client(Client const&)                     ./arduinolib/Ethernet/EthernetServer.o
Client::operator=(Client const&)                  ./src/main.o
Client::rawIPAddress(IPAddress&)                  ./arduinolib/Ethernet/EthernetClient.o
Config::Config()                                  ./src/Config.o
Config::Config()                                  ./src/Config.o
Config::getAddress()                              ./src/Config.o
Config::getGateway()                              ./src/Config.o
Config::getMac()                                  ./src/Config.o
Config::getNetmask()                              ./src/Config.o
Config::getPort()                                 ./src/Config.o
Config::~Config()                                 ./src/Config.o
Config::~Config()                                 ./src/Config.o
DNSClient::BuildRequest(char const*)              ./arduinolib/Ethernet/Dns.o
DNSClient::DNSClient()                            ./arduinolib/Ethernet/EthernetClient.o
DNSClient::ProcessResponse(unsigned int, IPAddress&) ./arduinolib/Ethernet/Dns.o
DNSClient::begin(IPAddress const&)                ./arduinolib/Ethernet/Dns.o
                                                  ./arduinolib/Ethernet/EthernetUdp.o
                                                  ./arduinolib/Ethernet/EthernetClient.o
DNSClient::getHostByName(char const*, IPAddress&) ./arduinolib/Ethernet/Dns.o
                                                  ./arduinolib/Ethernet/EthernetUdp.o
                                                  ./arduinolib/Ethernet/EthernetClient.o
DNSClient::inet_aton(char const*, IPAddress&)     ./arduinolib/Ethernet/Dns.o
DallasTemperature::DallasTemperature(OneWire*)    ./lib/DallasTemperature.o
DallasTemperature::DallasTemperature(OneWire*)    ./lib/DallasTemperature.o
                                                  ./src/main.o
DallasTemperature::alarmSearch(unsigned char*)    ./lib/DallasTemperature.o
DallasTemperature::begin()                        ./lib/DallasTemperature.o
                                                  ./src/main.o
DallasTemperature::blockTillConversionComplete(unsigned char*, unsigned char*) ./lib/DallasTemperature.o
DallasTemperature::calculateTemperature(unsigned char*, unsigned char*) ./lib/DallasTemperature.o
DallasTemperature::defaultAlarmHandler(unsigned char*) ./lib/DallasTemperature.o
DallasTemperature::getAddress(unsigned char*, unsigned char) ./lib/DallasTemperature.o
DallasTemperature::getCheckForConversion()        ./lib/DallasTemperature.o
DallasTemperature::getDeviceCount()               ./lib/DallasTemperature.o
DallasTemperature::getHighAlarmTemp(unsigned char*) ./lib/DallasTemperature.o
DallasTemperature::getLowAlarmTemp(unsigned char*) ./lib/DallasTemperature.o
DallasTemperature::getResolution()                ./lib/DallasTemperature.o
DallasTemperature::getResolution(unsigned char*)  ./lib/DallasTemperature.o
DallasTemperature::getTempC(unsigned char*)       ./lib/DallasTemperature.o
DallasTemperature::getTempCByIndex(unsigned char) ./lib/DallasTemperature.o
DallasTemperature::getTempF(unsigned char*)       ./lib/DallasTemperature.o
                                                  ./src/main.o
DallasTemperature::getTempFByIndex(unsigned char) ./lib/DallasTemperature.o
DallasTemperature::getWaitForConversion()         ./lib/DallasTemperature.o
DallasTemperature::hasAlarm()                     ./lib/DallasTemperature.o
DallasTemperature::hasAlarm(unsigned char*)       ./lib/DallasTemperature.o
DallasTemperature::isConnected(unsigned char*)    ./lib/DallasTemperature.o
DallasTemperature::isConnected(unsigned char*, unsigned char*) ./lib/DallasTemperature.o
DallasTemperature::isConversionAvailable(unsigned char*) ./lib/DallasTemperature.o
DallasTemperature::isParasitePowerMode()          ./lib/DallasTemperature.o
DallasTemperature::processAlarms()                ./lib/DallasTemperature.o
DallasTemperature::readPowerSupply(unsigned char*) ./lib/DallasTemperature.o
DallasTemperature::readScratchPad(unsigned char*, unsigned char*) ./lib/DallasTemperature.o
DallasTemperature::requestTemperatures()          ./lib/DallasTemperature.o
                                                  ./src/main.o
DallasTemperature::requestTemperaturesByAddress(unsigned char*) ./lib/DallasTemperature.o
DallasTemperature::requestTemperaturesByIndex(unsigned char) ./lib/DallasTemperature.o
DallasTemperature::resetAlarmSearch()             ./lib/DallasTemperature.o
DallasTemperature::setAlarmHandler(void (*)(unsigned char*)) ./lib/DallasTemperature.o
DallasTemperature::setCheckForConversion(bool)    ./lib/DallasTemperature.o
DallasTemperature::setHighAlarmTemp(unsigned char*, char) ./lib/DallasTemperature.o
DallasTemperature::setLowAlarmTemp(unsigned char*, char) ./lib/DallasTemperature.o
DallasTemperature::setResolution(unsigned char)   ./lib/DallasTemperature.o
DallasTemperature::setResolution(unsigned char*, unsigned char) ./lib/DallasTemperature.o
                                                  ./src/main.o
DallasTemperature::setWaitForConversion(bool)     ./lib/DallasTemperature.o
DallasTemperature::toCelsius(float)               ./lib/DallasTemperature.o
DallasTemperature::toFahrenheit(float)            ./lib/DallasTemperature.o
DallasTemperature::validAddress(unsigned char*)   ./lib/DallasTemperature.o
DallasTemperature::writeScratchPad(unsigned char*, unsigned char const*) ./lib/DallasTemperature.o
DateTime::DateTime(char const*, char const*)      ./lib/Chronodot.o
DateTime::DateTime(char const*, char const*)      ./lib/Chronodot.o
DateTime::DateTime(unsigned int, unsigned char, unsigned char, unsigned char, unsigned char, unsigned char, int, float) ./lib/Chronodot.o
DateTime::DateTime(unsigned int, unsigned char, unsigned char, unsigned char, unsigned char, unsigned char, int, float) ./lib/Chronodot.o
DateTime::DateTime(unsigned long)                 ./lib/Chronodot.o
                                                  ./src/main.o
DateTime::DateTime(unsigned long)                 ./lib/Chronodot.o
DateTime::day() const                             ./src/main.o
DateTime::dayOfWeek() const                       ./lib/Chronodot.o
DateTime::hour() const                            ./src/main.o
DateTime::minute() const                          ./src/main.o
DateTime::month() const                           ./src/main.o
DateTime::second() const                          ./src/main.o
DateTime::secondstime() const                     ./lib/Chronodot.o
DateTime::unixtime() const                        ./lib/Chronodot.o
DateTime::year() const                            ./src/main.o
DhcpClass::DhcpClass()                            ./arduinolib/Ethernet/Ethernet.o
DhcpClass::beginWithDHCP(unsigned char*, unsigned long, unsigned long) ./arduinolib/Ethernet/Dhcp.o
                                                  ./arduinolib/Ethernet/Ethernet.o
DhcpClass::getDhcpServerIp()                      ./arduinolib/Ethernet/Dhcp.o
DhcpClass::getDnsServerIp()                       ./arduinolib/Ethernet/Dhcp.o
                                                  ./arduinolib/Ethernet/Ethernet.o
DhcpClass::getGatewayIp()                         ./arduinolib/Ethernet/Dhcp.o
                                                  ./arduinolib/Ethernet/Ethernet.o
DhcpClass::getLocalIp()                           ./arduinolib/Ethernet/Dhcp.o
                                                  ./arduinolib/Ethernet/Ethernet.o
DhcpClass::getSubnetMask()                        ./arduinolib/Ethernet/Dhcp.o
                                                  ./arduinolib/Ethernet/Ethernet.o
DhcpClass::parseDHCPResponse(unsigned long, unsigned long&) ./arduinolib/Ethernet/Dhcp.o
DhcpClass::presend_DHCP()                         ./arduinolib/Ethernet/Dhcp.o
DhcpClass::send_DHCP_MESSAGE(unsigned char, unsigned int) ./arduinolib/Ethernet/Dhcp.o
EEPROM                                            ./arduinolib/EEPROM/EEPROM.o
                                                  ./src/main.o
                                                  ./src/Netmask.o
                                                  ./src/IpAddress.o
                                                  ./src/Gateway.o
EEPROMClass::read(int)                            ./arduinolib/EEPROM/EEPROM.o
                                                  ./src/main.o
                                                  ./src/Netmask.o
                                                  ./src/IpAddress.o
                                                  ./src/Gateway.o
EEPROMClass::write(int, unsigned char)            ./arduinolib/EEPROM/EEPROM.o
                                                  ./src/main.o
                                                  ./src/Netmask.o
                                                  ./src/IpAddress.o
                                                  ./src/Gateway.o
Ethernet                                          ./arduinolib/Ethernet/Ethernet.o
                                                  ./arduinolib/Ethernet/EthernetUdp.o
                                                  ./arduinolib/Ethernet/EthernetClient.o
                                                  ./src/main.o
EthernetClass::EthernetClass()                    ./arduinolib/Ethernet/Ethernet.o
EthernetClass::_server_port                       ./arduinolib/Ethernet/Ethernet.o
                                                  ./arduinolib/Ethernet/EthernetUdp.o
                                                  ./arduinolib/Ethernet/EthernetServer.o
                                                  ./arduinolib/Ethernet/EthernetClient.o
EthernetClass::_state                             ./arduinolib/Ethernet/Ethernet.o
EthernetClass::begin(unsigned char*)              ./arduinolib/Ethernet/Ethernet.o
EthernetClass::begin(unsigned char*, IPAddress)   ./arduinolib/Ethernet/Ethernet.o
EthernetClass::begin(unsigned char*, IPAddress, IPAddress) ./arduinolib/Ethernet/Ethernet.o
EthernetClass::begin(unsigned char*, IPAddress, IPAddress, IPAddress) ./arduinolib/Ethernet/Ethernet.o
EthernetClass::begin(unsigned char*, IPAddress, IPAddress, IPAddress, IPAddress) ./arduinolib/Ethernet/Ethernet.o
                                                  ./src/main.o
EthernetClass::dnsServerIP()                      ./arduinolib/Ethernet/Ethernet.o
                                                  ./arduinolib/Ethernet/EthernetUdp.o
                                                  ./arduinolib/Ethernet/EthernetClient.o
EthernetClass::gatewayIP()                        ./arduinolib/Ethernet/Ethernet.o
EthernetClass::localIP()                          ./arduinolib/Ethernet/Ethernet.o
EthernetClass::subnetMask()                       ./arduinolib/Ethernet/Ethernet.o
EthernetClient::EthernetClient()                  ./arduinolib/Ethernet/EthernetClient.o
                                                  ./src/main.o
EthernetClient::EthernetClient()                  ./arduinolib/Ethernet/EthernetClient.o
EthernetClient::EthernetClient(EthernetClient const&) ./arduinolib/Ethernet/EthernetServer.o
EthernetClient::EthernetClient(unsigned char)     ./arduinolib/Ethernet/EthernetClient.o
EthernetClient::EthernetClient(unsigned char)     ./arduinolib/Ethernet/EthernetClient.o
                                                  ./arduinolib/Ethernet/EthernetServer.o
EthernetClient::_srcport                          ./arduinolib/Ethernet/EthernetClient.o
EthernetClient::available()                       ./arduinolib/Ethernet/EthernetClient.o
                                                  ./arduinolib/Ethernet/EthernetServer.o
                                                  ./src/main.o
EthernetClient::connect(IPAddress, unsigned int)  ./arduinolib/Ethernet/EthernetClient.o
                                                  ./src/main.o
EthernetClient::connect(char const*, unsigned int) ./arduinolib/Ethernet/EthernetClient.o
EthernetClient::connected()                       ./arduinolib/Ethernet/EthernetClient.o
                                                  ./src/main.o
EthernetClient::flush()                           ./arduinolib/Ethernet/EthernetClient.o
                                                  ./src/main.o
EthernetClient::operator bool()                   ./arduinolib/Ethernet/EthernetClient.o
EthernetClient::operator=(EthernetClient const&)  ./src/main.o
EthernetClient::peek()                            ./arduinolib/Ethernet/EthernetClient.o
EthernetClient::read()                            ./arduinolib/Ethernet/EthernetClient.o
                                                  ./src/main.o
EthernetClient::read(unsigned char*, unsigned int) ./arduinolib/Ethernet/EthernetClient.o
EthernetClient::status()                          ./arduinolib/Ethernet/EthernetClient.o
                                                  ./arduinolib/Ethernet/EthernetServer.o
EthernetClient::stop()                            ./arduinolib/Ethernet/EthernetClient.o
                                                  ./arduinolib/Ethernet/EthernetServer.o
                                                  ./src/main.o
EthernetClient::write(unsigned char const*, unsigned int) ./arduinolib/Ethernet/EthernetClient.o
                                                  ./arduinolib/Ethernet/EthernetServer.o
EthernetClient::write(unsigned char)              ./arduinolib/Ethernet/EthernetClient.o
EthernetServer::EthernetServer(unsigned int)      ./arduinolib/Ethernet/EthernetServer.o
EthernetServer::EthernetServer(unsigned int)      ./arduinolib/Ethernet/EthernetServer.o
                                                  ./src/main.o
EthernetServer::accept()                          ./arduinolib/Ethernet/EthernetServer.o
EthernetServer::available()                       ./arduinolib/Ethernet/EthernetServer.o
                                                  ./src/main.o
EthernetServer::begin()                           ./arduinolib/Ethernet/EthernetServer.o
                                                  ./src/main.o
EthernetServer::write(unsigned char const*, unsigned int) ./arduinolib/Ethernet/EthernetServer.o
EthernetServer::write(unsigned char)              ./arduinolib/Ethernet/EthernetServer.o
EthernetUDP::EthernetUDP()                        ./arduinolib/Ethernet/EthernetUdp.o
EthernetUDP::EthernetUDP()                        ./arduinolib/Ethernet/EthernetUdp.o
                                                  ./arduinolib/Ethernet/EthernetClient.o
                                                  ./arduinolib/Ethernet/Ethernet.o
EthernetUDP::available()                          ./arduinolib/Ethernet/EthernetUdp.o
                                                  ./arduinolib/Ethernet/Dns.o
                                                  ./arduinolib/Ethernet/Dhcp.o
EthernetUDP::begin(unsigned int)                  ./arduinolib/Ethernet/EthernetUdp.o
                                                  ./arduinolib/Ethernet/Dns.o
                                                  ./arduinolib/Ethernet/Dhcp.o
EthernetUDP::beginPacket(IPAddress, unsigned int) ./arduinolib/Ethernet/EthernetUdp.o
                                                  ./arduinolib/Ethernet/Dns.o
                                                  ./arduinolib/Ethernet/Dhcp.o
EthernetUDP::beginPacket(char const*, unsigned int) ./arduinolib/Ethernet/EthernetUdp.o
EthernetUDP::endPacket()                          ./arduinolib/Ethernet/EthernetUdp.o
                                                  ./arduinolib/Ethernet/Dns.o
                                                  ./arduinolib/Ethernet/Dhcp.o
EthernetUDP::flush()                              ./arduinolib/Ethernet/EthernetUdp.o
                                                  ./arduinolib/Ethernet/Dns.o
                                                  ./arduinolib/Ethernet/Dhcp.o
EthernetUDP::parsePacket()                        ./arduinolib/Ethernet/EthernetUdp.o
                                                  ./arduinolib/Ethernet/Dns.o
                                                  ./arduinolib/Ethernet/Dhcp.o
EthernetUDP::peek()                               ./arduinolib/Ethernet/EthernetUdp.o
EthernetUDP::read()                               ./arduinolib/Ethernet/EthernetUdp.o
                                                  ./arduinolib/Ethernet/Dns.o
                                                  ./arduinolib/Ethernet/Dhcp.o
EthernetUDP::read(char*, unsigned int)            ./arduinolib/Ethernet/EthernetUdp.o
EthernetUDP::read(unsigned char*, unsigned int)   ./arduinolib/Ethernet/EthernetUdp.o
                                                  ./arduinolib/Ethernet/Dns.o
                                                  ./arduinolib/Ethernet/Dhcp.o
EthernetUDP::remoteIP()                           ./arduinolib/Ethernet/Dhcp.o
EthernetUDP::remotePort()                         ./arduinolib/Ethernet/Dhcp.o
EthernetUDP::stop()                               ./arduinolib/Ethernet/EthernetUdp.o
                                                  ./arduinolib/Ethernet/Dns.o
                                                  ./arduinolib/Ethernet/Dhcp.o
EthernetUDP::write(unsigned char const*, unsigned int) ./arduinolib/Ethernet/EthernetUdp.o
                                                  ./arduinolib/Ethernet/Dns.o
                                                  ./arduinolib/Ethernet/Dhcp.o
EthernetUDP::write(unsigned char)                 ./arduinolib/Ethernet/EthernetUdp.o
Gateway::Gateway()                                ./src/Gateway.o
Gateway::Gateway()                                ./src/Gateway.o
                                                  ./src/main.o
Gateway::erase()                                  ./src/Gateway.o
Gateway::getBytes()                               ./src/Gateway.o
                                                  ./src/main.o
Gateway::set(unsigned char, unsigned char, unsigned char, unsigned char) ./src/Gateway.o
Gateway::toString()                               ./src/Gateway.o
                                                  ./src/main.o
Gateway::~Gateway()                               ./src/Gateway.o
                                                  ./src/main.o
Gateway::~Gateway()                               ./src/Gateway.o
HardwareSerial::HardwareSerial(ring_buffer*, ring_buffer*, unsigned char volatile*, unsigned char volatile*, unsigned char volatile*, unsigned char volatile*, unsigned char volatile*, unsigned char, unsigned char, unsigned char, unsigned char, unsigned char) /storage/apps/eclipse-avr/workspace/ArduinoCore-1.0/Mega2560/libArduinoCore-1.0.a(HardwareSerial.o)
HardwareSerial::HardwareSerial(ring_buffer*, ring_buffer*, unsigned char volatile*, unsigned char volatile*, unsigned char volatile*, unsigned char volatile*, unsigned char volatile*, unsigned char, unsigned char, unsigned char, unsigned char, unsigned char) /storage/apps/eclipse-avr/workspace/ArduinoCore-1.0/Mega2560/libArduinoCore-1.0.a(HardwareSerial.o)
HardwareSerial::available()                       /storage/apps/eclipse-avr/workspace/ArduinoCore-1.0/Mega2560/libArduinoCore-1.0.a(HardwareSerial.o)
                                                  ./src/main.o
HardwareSerial::begin(unsigned long)              /storage/apps/eclipse-avr/workspace/ArduinoCore-1.0/Mega2560/libArduinoCore-1.0.a(HardwareSerial.o)
                                                  ./src/main.o
HardwareSerial::end()                             /storage/apps/eclipse-avr/workspace/ArduinoCore-1.0/Mega2560/libArduinoCore-1.0.a(HardwareSerial.o)
HardwareSerial::flush()                           /storage/apps/eclipse-avr/workspace/ArduinoCore-1.0/Mega2560/libArduinoCore-1.0.a(HardwareSerial.o)
HardwareSerial::peek()                            /storage/apps/eclipse-avr/workspace/ArduinoCore-1.0/Mega2560/libArduinoCore-1.0.a(HardwareSerial.o)
HardwareSerial::read()                            /storage/apps/eclipse-avr/workspace/ArduinoCore-1.0/Mega2560/libArduinoCore-1.0.a(HardwareSerial.o)
                                                  ./src/main.o
HardwareSerial::write(unsigned char)              /storage/apps/eclipse-avr/workspace/ArduinoCore-1.0/Mega2560/libArduinoCore-1.0.a(HardwareSerial.o)
IPAddress::IPAddress()                            /storage/apps/eclipse-avr/workspace/ArduinoCore-1.0/Mega2560/libArduinoCore-1.0.a(IPAddress.o)
IPAddress::IPAddress()                            /storage/apps/eclipse-avr/workspace/ArduinoCore-1.0/Mega2560/libArduinoCore-1.0.a(IPAddress.o)
                                                  ./arduinolib/Ethernet/EthernetUdp.o
                                                  ./arduinolib/Ethernet/EthernetClient.o
                                                  ./arduinolib/Ethernet/Ethernet.o
IPAddress::IPAddress(IPAddress const&)            ./arduinolib/Ethernet/Dhcp.o
IPAddress::IPAddress(unsigned char const*)        /storage/apps/eclipse-avr/workspace/ArduinoCore-1.0/Mega2560/libArduinoCore-1.0.a(IPAddress.o)
                                                  ./arduinolib/Ethernet/Dhcp.o
                                                  ./src/main.o
IPAddress::IPAddress(unsigned char const*)        /storage/apps/eclipse-avr/workspace/ArduinoCore-1.0/Mega2560/libArduinoCore-1.0.a(IPAddress.o)
IPAddress::IPAddress(unsigned char, unsigned char, unsigned char, unsigned char) /storage/apps/eclipse-avr/workspace/ArduinoCore-1.0/Mega2560/libArduinoCore-1.0.a(IPAddress.o)
                                                  ./arduinolib/Ethernet/EthernetUdp.o
                                                  ./arduinolib/Ethernet/EthernetServer.o
                                                  ./arduinolib/Ethernet/EthernetClient.o
                                                  ./arduinolib/Ethernet/Ethernet.o
                                                  ./arduinolib/Ethernet/Dns.o
                                                  ./arduinolib/Ethernet/Dhcp.o
                                                  ./src/main.o
                                                  ./src/Config.o
IPAddress::IPAddress(unsigned char, unsigned char, unsigned char, unsigned char) /storage/apps/eclipse-avr/workspace/ArduinoCore-1.0/Mega2560/libArduinoCore-1.0.a(IPAddress.o)
IPAddress::IPAddress(unsigned long)               /storage/apps/eclipse-avr/workspace/ArduinoCore-1.0/Mega2560/libArduinoCore-1.0.a(IPAddress.o)
IPAddress::IPAddress(unsigned long)               /storage/apps/eclipse-avr/workspace/ArduinoCore-1.0/Mega2560/libArduinoCore-1.0.a(IPAddress.o)
IPAddress::operator unsigned long()               ./arduinolib/Ethernet/Dns.o
IPAddress::operator=(IPAddress const&)            ./arduinolib/Ethernet/Dns.o
IPAddress::operator=(unsigned char const*)        /storage/apps/eclipse-avr/workspace/ArduinoCore-1.0/Mega2560/libArduinoCore-1.0.a(IPAddress.o)
                                                  ./arduinolib/Ethernet/EthernetUdp.o
IPAddress::operator=(unsigned long)               /storage/apps/eclipse-avr/workspace/ArduinoCore-1.0/Mega2560/libArduinoCore-1.0.a(IPAddress.o)
IPAddress::operator==(IPAddress const&)           ./arduinolib/Ethernet/Dhcp.o
IPAddress::operator==(unsigned char const*)       /storage/apps/eclipse-avr/workspace/ArduinoCore-1.0/Mega2560/libArduinoCore-1.0.a(IPAddress.o)
IPAddress::operator[](int)                        ./arduinolib/Ethernet/Dns.o
IPAddress::printTo(Print&) const                  /storage/apps/eclipse-avr/workspace/ArduinoCore-1.0/Mega2560/libArduinoCore-1.0.a(IPAddress.o)
IPAddress::raw_address()                          ./arduinolib/Ethernet/Dns.o
IpAddress::IpAddress()                            ./src/IpAddress.o
IpAddress::IpAddress()                            ./src/IpAddress.o
                                                  ./src/main.o
IpAddress::erase()                                ./src/IpAddress.o
IpAddress::getBytes()                             ./src/IpAddress.o
                                                  ./src/main.o
IpAddress::set(unsigned char, unsigned char, unsigned char, unsigned char) ./src/IpAddress.o
IpAddress::toString()                             ./src/IpAddress.o
                                                  ./src/main.o
IpAddress::~IpAddress()                           ./src/IpAddress.o
                                                  ./src/main.o
IpAddress::~IpAddress()                           ./src/IpAddress.o
Netmask::Netmask()                                ./src/Netmask.o
                                                  ./src/main.o
Netmask::Netmask()                                ./src/Netmask.o
Netmask::erase()                                  ./src/Netmask.o
Netmask::getBytes()                               ./src/Netmask.o
                                                  ./src/main.o
Netmask::set(unsigned char, unsigned char, unsigned char, unsigned char) ./src/Netmask.o
Netmask::toString()                               ./src/Netmask.o
                                                  ./src/main.o
Netmask::~Netmask()                               ./src/Netmask.o
Netmask::~Netmask()                               ./src/Netmask.o
                                                  ./src/main.o
OneWire::OneWire(unsigned char)                   ./lib/OneWire.o
OneWire::OneWire(unsigned char)                   ./lib/OneWire.o
                                                  ./src/main.o
OneWire::check_crc16(unsigned char*, unsigned int, unsigned char*) ./lib/OneWire.o
OneWire::crc16(unsigned char*, unsigned int)      ./lib/OneWire.o
OneWire::crc8(unsigned char*, unsigned char)      ./lib/OneWire.o
                                                  ./lib/DallasTemperature.o
OneWire::depower()                                ./lib/OneWire.o
OneWire::read()                                   ./lib/OneWire.o
                                                  ./lib/DallasTemperature.o
OneWire::read_bit()                               ./lib/OneWire.o
                                                  ./lib/DallasTemperature.o
OneWire::read_bytes(unsigned char*, unsigned int) ./lib/OneWire.o
OneWire::reset()                                  ./lib/OneWire.o
                                                  ./lib/DallasTemperature.o
OneWire::reset_search()                           ./lib/OneWire.o
                                                  ./lib/DallasTemperature.o
OneWire::search(unsigned char*)                   ./lib/OneWire.o
                                                  ./lib/DallasTemperature.o
OneWire::select(unsigned char*)                   ./lib/OneWire.o
                                                  ./lib/DallasTemperature.o
OneWire::skip()                                   ./lib/OneWire.o
                                                  ./lib/DallasTemperature.o
OneWire::write(unsigned char, unsigned char)      ./lib/OneWire.o
                                                  ./lib/DallasTemperature.o
OneWire::write_bit(unsigned char)                 ./lib/OneWire.o
                                                  ./lib/DallasTemperature.o
OneWire::write_bytes(unsigned char const*, unsigned int, bool) ./lib/OneWire.o
Print::Print()                                    ./arduinolib/Wire/Wire.o
Print::Print(Print const&)                        ./arduinolib/Ethernet/EthernetServer.o
Print::operator=(Print const&)                    ./src/main.o
Print::print(Printable const&)                    /storage/apps/eclipse-avr/workspace/ArduinoCore-1.0/Mega2560/libArduinoCore-1.0.a(Print.o)
Print::print(String const&)                       /storage/apps/eclipse-avr/workspace/ArduinoCore-1.0/Mega2560/libArduinoCore-1.0.a(Print.o)
                                                  ./src/main.o
Print::print(__FlashStringHelper const*)          /storage/apps/eclipse-avr/workspace/ArduinoCore-1.0/Mega2560/libArduinoCore-1.0.a(Print.o)
Print::print(char const*)                         /storage/apps/eclipse-avr/workspace/ArduinoCore-1.0/Mega2560/libArduinoCore-1.0.a(Print.o)
                                                  ./src/main.o
Print::print(char)                                /storage/apps/eclipse-avr/workspace/ArduinoCore-1.0/Mega2560/libArduinoCore-1.0.a(Print.o)
                                                  /storage/apps/eclipse-avr/workspace/ArduinoCore-1.0/Mega2560/libArduinoCore-1.0.a(IPAddress.o)
Print::print(double, int)                         /storage/apps/eclipse-avr/workspace/ArduinoCore-1.0/Mega2560/libArduinoCore-1.0.a(Print.o)
                                                  ./src/main.o
Print::print(int, int)                            /storage/apps/eclipse-avr/workspace/ArduinoCore-1.0/Mega2560/libArduinoCore-1.0.a(Print.o)
                                                  ./src/main.o
Print::print(long, int)                           /storage/apps/eclipse-avr/workspace/ArduinoCore-1.0/Mega2560/libArduinoCore-1.0.a(Print.o)
Print::print(unsigned char, int)                  /storage/apps/eclipse-avr/workspace/ArduinoCore-1.0/Mega2560/libArduinoCore-1.0.a(Print.o)
                                                  /storage/apps/eclipse-avr/workspace/ArduinoCore-1.0/Mega2560/libArduinoCore-1.0.a(IPAddress.o)
Print::print(unsigned int, int)                   /storage/apps/eclipse-avr/workspace/ArduinoCore-1.0/Mega2560/libArduinoCore-1.0.a(Print.o)
Print::print(unsigned long, int)                  /storage/apps/eclipse-avr/workspace/ArduinoCore-1.0/Mega2560/libArduinoCore-1.0.a(Print.o)
Print::printFloat(double, unsigned char)          /storage/apps/eclipse-avr/workspace/ArduinoCore-1.0/Mega2560/libArduinoCore-1.0.a(Print.o)
Print::printNumber(unsigned long, unsigned char)  /storage/apps/eclipse-avr/workspace/ArduinoCore-1.0/Mega2560/libArduinoCore-1.0.a(Print.o)
Print::println()                                  /storage/apps/eclipse-avr/workspace/ArduinoCore-1.0/Mega2560/libArduinoCore-1.0.a(Print.o)
                                                  ./src/main.o
Print::println(Printable const&)                  /storage/apps/eclipse-avr/workspace/ArduinoCore-1.0/Mega2560/libArduinoCore-1.0.a(Print.o)
Print::println(String const&)                     /storage/apps/eclipse-avr/workspace/ArduinoCore-1.0/Mega2560/libArduinoCore-1.0.a(Print.o)
                                                  ./src/main.o
Print::println(__FlashStringHelper const*)        /storage/apps/eclipse-avr/workspace/ArduinoCore-1.0/Mega2560/libArduinoCore-1.0.a(Print.o)
Print::println(char const*)                       /storage/apps/eclipse-avr/workspace/ArduinoCore-1.0/Mega2560/libArduinoCore-1.0.a(Print.o)
                                                  ./src/main.o
Print::println(char)                              /storage/apps/eclipse-avr/workspace/ArduinoCore-1.0/Mega2560/libArduinoCore-1.0.a(Print.o)
                                                  ./src/main.o
Print::println(double, int)                       /storage/apps/eclipse-avr/workspace/ArduinoCore-1.0/Mega2560/libArduinoCore-1.0.a(Print.o)
Print::println(int, int)                          /storage/apps/eclipse-avr/workspace/ArduinoCore-1.0/Mega2560/libArduinoCore-1.0.a(Print.o)
Print::println(long, int)                         /storage/apps/eclipse-avr/workspace/ArduinoCore-1.0/Mega2560/libArduinoCore-1.0.a(Print.o)
Print::println(unsigned char, int)                /storage/apps/eclipse-avr/workspace/ArduinoCore-1.0/Mega2560/libArduinoCore-1.0.a(Print.o)
Print::println(unsigned int, int)                 /storage/apps/eclipse-avr/workspace/ArduinoCore-1.0/Mega2560/libArduinoCore-1.0.a(Print.o)
Print::println(unsigned long, int)                /storage/apps/eclipse-avr/workspace/ArduinoCore-1.0/Mega2560/libArduinoCore-1.0.a(Print.o)
Print::setWriteError(int)                         ./arduinolib/Wire/Wire.o
Print::write(char const*)                         /storage/apps/eclipse-avr/workspace/ArduinoCore-1.0/Mega2560/libArduinoCore-1.0.a(Print.o)
Print::write(unsigned char const*, unsigned int)  /storage/apps/eclipse-avr/workspace/ArduinoCore-1.0/Mega2560/libArduinoCore-1.0.a(Print.o)
                                                  /storage/apps/eclipse-avr/workspace/ArduinoCore-1.0/Mega2560/libArduinoCore-1.0.a(HardwareSerial.o)
                                                  ./arduinolib/Ethernet/EthernetUdp.o
                                                  ./arduinolib/Ethernet/EthernetServer.o
                                                  ./arduinolib/Ethernet/EthernetClient.o
                                                  ./arduinolib/Wire/Wire.o
Printable::Printable(Printable const&)            ./arduinolib/Ethernet/Dhcp.o
Printable::operator=(Printable const&)            ./arduinolib/Ethernet/Dns.o
RTC                                               ./src/main.o
RTC_Millis::adjust(DateTime const&)               ./lib/Chronodot.o
RTC_Millis::now()                                 ./lib/Chronodot.o
RTC_Millis::offset                                ./lib/Chronodot.o
SPI                                               ./arduinolib/SPI/SPI.o
SPIClass::begin()                                 ./arduinolib/SPI/SPI.o
                                                  ./arduinolib/Ethernet/utility/w5100.o
SPIClass::end()                                   ./arduinolib/SPI/SPI.o
SPIClass::setBitOrder(unsigned char)              ./arduinolib/SPI/SPI.o
SPIClass::setClockDivider(unsigned char)          ./arduinolib/SPI/SPI.o
SPIClass::setDataMode(unsigned char)              ./arduinolib/SPI/SPI.o
SPIClass::transfer(unsigned char)                 ./arduinolib/Ethernet/utility/w5100.o
Serial                                            /storage/apps/eclipse-avr/workspace/ArduinoCore-1.0/Mega2560/libArduinoCore-1.0.a(HardwareSerial.o)
                                                  ./src/main.o
Serial1                                           /storage/apps/eclipse-avr/workspace/ArduinoCore-1.0/Mega2560/libArduinoCore-1.0.a(HardwareSerial.o)
Serial2                                           /storage/apps/eclipse-avr/workspace/ArduinoCore-1.0/Mega2560/libArduinoCore-1.0.a(HardwareSerial.o)
Serial3                                           /storage/apps/eclipse-avr/workspace/ArduinoCore-1.0/Mega2560/libArduinoCore-1.0.a(HardwareSerial.o)
                                                  ./src/main.o
Server::Server()                                  ./arduinolib/Ethernet/EthernetServer.o
Stream::Stream()                                  ./arduinolib/Wire/Wire.o
Stream::Stream(Stream const&)                     ./arduinolib/Ethernet/EthernetServer.o
Stream::operator=(Stream const&)                  ./src/main.o
String::String(String const&)                     /storage/apps/eclipse-avr/workspace/ArduinoCore-1.0/Mega2560/libArduinoCore-1.0.a(WString.o)
                                                  ./src/Netmask.o
                                                  ./src/IpAddress.o
                                                  ./src/Gateway.o
String::String(String const&)                     /storage/apps/eclipse-avr/workspace/ArduinoCore-1.0/Mega2560/libArduinoCore-1.0.a(WString.o)
                                                  ./src/main.o
String::String(char const*)                       /storage/apps/eclipse-avr/workspace/ArduinoCore-1.0/Mega2560/libArduinoCore-1.0.a(WString.o)
                                                  ./src/main.o
                                                  ./src/Netmask.o
                                                  ./src/IpAddress.o
                                                  ./src/Gateway.o
String::String(char const*)                       /storage/apps/eclipse-avr/workspace/ArduinoCore-1.0/Mega2560/libArduinoCore-1.0.a(WString.o)
                                                  ./src/main.o
String::String(char)                              /storage/apps/eclipse-avr/workspace/ArduinoCore-1.0/Mega2560/libArduinoCore-1.0.a(WString.o)
String::String(char)                              /storage/apps/eclipse-avr/workspace/ArduinoCore-1.0/Mega2560/libArduinoCore-1.0.a(WString.o)
                                                  ./src/main.o
String::String(int, unsigned char)                /storage/apps/eclipse-avr/workspace/ArduinoCore-1.0/Mega2560/libArduinoCore-1.0.a(WString.o)
                                                  ./src/main.o
String::String(int, unsigned char)                /storage/apps/eclipse-avr/workspace/ArduinoCore-1.0/Mega2560/libArduinoCore-1.0.a(WString.o)
String::String(long, unsigned char)               /storage/apps/eclipse-avr/workspace/ArduinoCore-1.0/Mega2560/libArduinoCore-1.0.a(WString.o)
String::String(long, unsigned char)               /storage/apps/eclipse-avr/workspace/ArduinoCore-1.0/Mega2560/libArduinoCore-1.0.a(WString.o)
String::String(unsigned char, unsigned char)      /storage/apps/eclipse-avr/workspace/ArduinoCore-1.0/Mega2560/libArduinoCore-1.0.a(WString.o)
                                                  ./src/main.o
                                                  ./src/Netmask.o
                                                  ./src/IpAddress.o
                                                  ./src/Gateway.o
String::String(unsigned char, unsigned char)      /storage/apps/eclipse-avr/workspace/ArduinoCore-1.0/Mega2560/libArduinoCore-1.0.a(WString.o)
String::String(unsigned int, unsigned char)       /storage/apps/eclipse-avr/workspace/ArduinoCore-1.0/Mega2560/libArduinoCore-1.0.a(WString.o)
String::String(unsigned int, unsigned char)       /storage/apps/eclipse-avr/workspace/ArduinoCore-1.0/Mega2560/libArduinoCore-1.0.a(WString.o)
                                                  ./src/main.o
String::String(unsigned long, unsigned char)      /storage/apps/eclipse-avr/workspace/ArduinoCore-1.0/Mega2560/libArduinoCore-1.0.a(WString.o)
String::String(unsigned long, unsigned char)      /storage/apps/eclipse-avr/workspace/ArduinoCore-1.0/Mega2560/libArduinoCore-1.0.a(WString.o)
                                                  ./src/main.o
String::changeBuffer(unsigned int)                /storage/apps/eclipse-avr/workspace/ArduinoCore-1.0/Mega2560/libArduinoCore-1.0.a(WString.o)
String::charAt(unsigned int) const                /storage/apps/eclipse-avr/workspace/ArduinoCore-1.0/Mega2560/libArduinoCore-1.0.a(WString.o)
String::compareTo(String const&) const            /storage/apps/eclipse-avr/workspace/ArduinoCore-1.0/Mega2560/libArduinoCore-1.0.a(WString.o)
String::concat(String const&)                     /storage/apps/eclipse-avr/workspace/ArduinoCore-1.0/Mega2560/libArduinoCore-1.0.a(WString.o)
                                                  ./src/main.o
String::concat(char const*)                       /storage/apps/eclipse-avr/workspace/ArduinoCore-1.0/Mega2560/libArduinoCore-1.0.a(WString.o)
                                                  ./src/main.o
                                                  ./src/Netmask.o
                                                  ./src/IpAddress.o
                                                  ./src/Gateway.o
String::concat(char const*, unsigned int)         /storage/apps/eclipse-avr/workspace/ArduinoCore-1.0/Mega2560/libArduinoCore-1.0.a(WString.o)
String::concat(char)                              /storage/apps/eclipse-avr/workspace/ArduinoCore-1.0/Mega2560/libArduinoCore-1.0.a(WString.o)
                                                  ./src/main.o
String::concat(int)                               /storage/apps/eclipse-avr/workspace/ArduinoCore-1.0/Mega2560/libArduinoCore-1.0.a(WString.o)
String::concat(long)                              /storage/apps/eclipse-avr/workspace/ArduinoCore-1.0/Mega2560/libArduinoCore-1.0.a(WString.o)
String::concat(unsigned char)                     /storage/apps/eclipse-avr/workspace/ArduinoCore-1.0/Mega2560/libArduinoCore-1.0.a(WString.o)
                                                  ./src/Netmask.o
                                                  ./src/IpAddress.o
                                                  ./src/Gateway.o
String::concat(unsigned int)                      /storage/apps/eclipse-avr/workspace/ArduinoCore-1.0/Mega2560/libArduinoCore-1.0.a(WString.o)
String::concat(unsigned long)                     /storage/apps/eclipse-avr/workspace/ArduinoCore-1.0/Mega2560/libArduinoCore-1.0.a(WString.o)
String::copy(char const*, unsigned int)           /storage/apps/eclipse-avr/workspace/ArduinoCore-1.0/Mega2560/libArduinoCore-1.0.a(WString.o)
String::endsWith(String const&) const             /storage/apps/eclipse-avr/workspace/ArduinoCore-1.0/Mega2560/libArduinoCore-1.0.a(WString.o)
String::equals(String const&) const               /storage/apps/eclipse-avr/workspace/ArduinoCore-1.0/Mega2560/libArduinoCore-1.0.a(WString.o)
String::equals(char const*) const                 /storage/apps/eclipse-avr/workspace/ArduinoCore-1.0/Mega2560/libArduinoCore-1.0.a(WString.o)
                                                  ./src/main.o
String::equalsIgnoreCase(String const&) const     /storage/apps/eclipse-avr/workspace/ArduinoCore-1.0/Mega2560/libArduinoCore-1.0.a(WString.o)
String::getBytes(unsigned char*, unsigned int, unsigned int) const /storage/apps/eclipse-avr/workspace/ArduinoCore-1.0/Mega2560/libArduinoCore-1.0.a(WString.o)
                                                  ./src/main.o
String::indexOf(String const&) const              /storage/apps/eclipse-avr/workspace/ArduinoCore-1.0/Mega2560/libArduinoCore-1.0.a(WString.o)
String::indexOf(String const&, unsigned int) const /storage/apps/eclipse-avr/workspace/ArduinoCore-1.0/Mega2560/libArduinoCore-1.0.a(WString.o)
String::indexOf(char) const                       /storage/apps/eclipse-avr/workspace/ArduinoCore-1.0/Mega2560/libArduinoCore-1.0.a(WString.o)
                                                  ./src/main.o
String::indexOf(char, unsigned int) const         /storage/apps/eclipse-avr/workspace/ArduinoCore-1.0/Mega2560/libArduinoCore-1.0.a(WString.o)
                                                  ./src/main.o
String::invalidate()                              /storage/apps/eclipse-avr/workspace/ArduinoCore-1.0/Mega2560/libArduinoCore-1.0.a(WString.o)
String::lastIndexOf(String const&) const          /storage/apps/eclipse-avr/workspace/ArduinoCore-1.0/Mega2560/libArduinoCore-1.0.a(WString.o)
String::lastIndexOf(String const&, unsigned int) const /storage/apps/eclipse-avr/workspace/ArduinoCore-1.0/Mega2560/libArduinoCore-1.0.a(WString.o)
String::lastIndexOf(char) const                   /storage/apps/eclipse-avr/workspace/ArduinoCore-1.0/Mega2560/libArduinoCore-1.0.a(WString.o)
String::lastIndexOf(char, unsigned int) const     /storage/apps/eclipse-avr/workspace/ArduinoCore-1.0/Mega2560/libArduinoCore-1.0.a(WString.o)
String::operator+=(String const&)                 ./src/main.o
String::operator+=(char const*)                   ./src/main.o
String::operator+=(char)                          ./src/main.o
String::operator<(String const&) const            /storage/apps/eclipse-avr/workspace/ArduinoCore-1.0/Mega2560/libArduinoCore-1.0.a(WString.o)
String::operator<=(String const&) const           /storage/apps/eclipse-avr/workspace/ArduinoCore-1.0/Mega2560/libArduinoCore-1.0.a(WString.o)
String::operator=(String const&)                  /storage/apps/eclipse-avr/workspace/ArduinoCore-1.0/Mega2560/libArduinoCore-1.0.a(WString.o)
                                                  ./src/main.o
                                                  ./src/Netmask.o
                                                  ./src/IpAddress.o
                                                  ./src/Gateway.o
String::operator=(char const*)                    /storage/apps/eclipse-avr/workspace/ArduinoCore-1.0/Mega2560/libArduinoCore-1.0.a(WString.o)
                                                  ./src/main.o
String::operator==(char const*) const             ./src/main.o
String::operator>(String const&) const            /storage/apps/eclipse-avr/workspace/ArduinoCore-1.0/Mega2560/libArduinoCore-1.0.a(WString.o)
String::operator>=(String const&) const           /storage/apps/eclipse-avr/workspace/ArduinoCore-1.0/Mega2560/libArduinoCore-1.0.a(WString.o)
String::operator[](unsigned int)                  /storage/apps/eclipse-avr/workspace/ArduinoCore-1.0/Mega2560/libArduinoCore-1.0.a(WString.o)
String::operator[](unsigned int) const            /storage/apps/eclipse-avr/workspace/ArduinoCore-1.0/Mega2560/libArduinoCore-1.0.a(WString.o)
                                                  /storage/apps/eclipse-avr/workspace/ArduinoCore-1.0/Mega2560/libArduinoCore-1.0.a(Print.o)
String::replace(String const&, String const&)     /storage/apps/eclipse-avr/workspace/ArduinoCore-1.0/Mega2560/libArduinoCore-1.0.a(WString.o)
String::replace(char, char)                       /storage/apps/eclipse-avr/workspace/ArduinoCore-1.0/Mega2560/libArduinoCore-1.0.a(WString.o)
String::reserve(unsigned int)                     /storage/apps/eclipse-avr/workspace/ArduinoCore-1.0/Mega2560/libArduinoCore-1.0.a(WString.o)
                                                  ./src/main.o
String::setCharAt(unsigned int, char)             /storage/apps/eclipse-avr/workspace/ArduinoCore-1.0/Mega2560/libArduinoCore-1.0.a(WString.o)
String::startsWith(String const&) const           /storage/apps/eclipse-avr/workspace/ArduinoCore-1.0/Mega2560/libArduinoCore-1.0.a(WString.o)
String::startsWith(String const&, unsigned int) const /storage/apps/eclipse-avr/workspace/ArduinoCore-1.0/Mega2560/libArduinoCore-1.0.a(WString.o)
String::substring(unsigned int) const             /storage/apps/eclipse-avr/workspace/ArduinoCore-1.0/Mega2560/libArduinoCore-1.0.a(WString.o)
String::substring(unsigned int, unsigned int) const /storage/apps/eclipse-avr/workspace/ArduinoCore-1.0/Mega2560/libArduinoCore-1.0.a(WString.o)
                                                  ./src/main.o
String::toCharArray(char*, unsigned int, unsigned int) const ./src/main.o
String::toInt() const                             /storage/apps/eclipse-avr/workspace/ArduinoCore-1.0/Mega2560/libArduinoCore-1.0.a(WString.o)
String::toLowerCase()                             /storage/apps/eclipse-avr/workspace/ArduinoCore-1.0/Mega2560/libArduinoCore-1.0.a(WString.o)
String::toUpperCase()                             /storage/apps/eclipse-avr/workspace/ArduinoCore-1.0/Mega2560/libArduinoCore-1.0.a(WString.o)
String::trim()                                    /storage/apps/eclipse-avr/workspace/ArduinoCore-1.0/Mega2560/libArduinoCore-1.0.a(WString.o)
String::~String()                                 /storage/apps/eclipse-avr/workspace/ArduinoCore-1.0/Mega2560/libArduinoCore-1.0.a(WString.o)
                                                  ./src/main.o
                                                  ./src/Netmask.o
                                                  ./src/IpAddress.o
                                                  ./src/Gateway.o
String::~String()                                 /storage/apps/eclipse-avr/workspace/ArduinoCore-1.0/Mega2560/libArduinoCore-1.0.a(WString.o)
                                                  ./src/main.o
StringSumHelper::StringSumHelper(String const&)   ./src/main.o
StringSumHelper::StringSumHelper(char const*)     ./src/main.o
StringSumHelper::~StringSumHelper()               ./src/main.o
TwoWire::TwoWire()                                ./arduinolib/Wire/Wire.o
TwoWire::TwoWire()                                ./arduinolib/Wire/Wire.o
TwoWire::available()                              ./arduinolib/Wire/Wire.o
TwoWire::begin()                                  ./arduinolib/Wire/Wire.o
                                                  ./src/main.o
TwoWire::begin(int)                               ./arduinolib/Wire/Wire.o
TwoWire::begin(unsigned char)                     ./arduinolib/Wire/Wire.o
TwoWire::beginTransmission(int)                   ./arduinolib/Wire/Wire.o
                                                  ./lib/Chronodot.o
TwoWire::beginTransmission(unsigned char)         ./arduinolib/Wire/Wire.o
TwoWire::endTransmission()                        ./arduinolib/Wire/Wire.o
                                                  ./lib/Chronodot.o
TwoWire::endTransmission(unsigned char)           ./arduinolib/Wire/Wire.o
TwoWire::flush()                                  ./arduinolib/Wire/Wire.o
TwoWire::onReceive(void (*)(int))                 ./arduinolib/Wire/Wire.o
TwoWire::onReceiveService(unsigned char*, int)    ./arduinolib/Wire/Wire.o
TwoWire::onRequest(void (*)())                    ./arduinolib/Wire/Wire.o
TwoWire::onRequestService()                       ./arduinolib/Wire/Wire.o
TwoWire::peek()                                   ./arduinolib/Wire/Wire.o
TwoWire::read()                                   ./arduinolib/Wire/Wire.o
                                                  ./lib/Chronodot.o
TwoWire::requestFrom(int, int)                    ./arduinolib/Wire/Wire.o
                                                  ./lib/Chronodot.o
TwoWire::requestFrom(int, int, int)               ./arduinolib/Wire/Wire.o
TwoWire::requestFrom(unsigned char, unsigned char) ./arduinolib/Wire/Wire.o
TwoWire::requestFrom(unsigned char, unsigned char, unsigned char) ./arduinolib/Wire/Wire.o
TwoWire::rxBuffer                                 ./arduinolib/Wire/Wire.o
TwoWire::rxBufferIndex                            ./arduinolib/Wire/Wire.o
TwoWire::rxBufferLength                           ./arduinolib/Wire/Wire.o
TwoWire::transmitting                             ./arduinolib/Wire/Wire.o
TwoWire::txAddress                                ./arduinolib/Wire/Wire.o
TwoWire::txBuffer                                 ./arduinolib/Wire/Wire.o
TwoWire::txBufferIndex                            ./arduinolib/Wire/Wire.o
TwoWire::txBufferLength                           ./arduinolib/Wire/Wire.o
TwoWire::user_onReceive                           ./arduinolib/Wire/Wire.o
TwoWire::user_onRequest                           ./arduinolib/Wire/Wire.o
TwoWire::write(unsigned char const*, unsigned int) ./arduinolib/Wire/Wire.o
TwoWire::write(unsigned char)                     ./arduinolib/Wire/Wire.o
                                                  ./lib/Chronodot.o
UDP::UDP()                                        ./arduinolib/Ethernet/EthernetUdp.o
UDP::rawIPAddress(IPAddress&)                     ./arduinolib/Ethernet/EthernetUdp.o
W5100                                             ./arduinolib/Ethernet/utility/w5100.o
                                                  ./arduinolib/Ethernet/EthernetUdp.o
                                                  ./arduinolib/Ethernet/EthernetClient.o
                                                  ./arduinolib/Ethernet/Ethernet.o
                                                  ./arduinolib/Ethernet/utility/socket.o
W5100Class::execCmdSn(unsigned char, SockCMD)     ./arduinolib/Ethernet/utility/w5100.o
                                                  ./arduinolib/Ethernet/utility/socket.o
W5100Class::getGatewayIp(unsigned char*)          ./arduinolib/Ethernet/Ethernet.o
W5100Class::getIPAddress(unsigned char*)          ./arduinolib/Ethernet/Ethernet.o
W5100Class::getRXReceivedSize(unsigned char)      ./arduinolib/Ethernet/utility/w5100.o
                                                  ./arduinolib/Ethernet/EthernetUdp.o
                                                  ./arduinolib/Ethernet/EthernetClient.o
                                                  ./arduinolib/Ethernet/utility/socket.o
W5100Class::getSubnetMask(unsigned char*)         ./arduinolib/Ethernet/Ethernet.o
W5100Class::getTXFreeSize(unsigned char)          ./arduinolib/Ethernet/utility/w5100.o
                                                  ./arduinolib/Ethernet/utility/socket.o
W5100Class::init()                                ./arduinolib/Ethernet/utility/w5100.o
                                                  ./arduinolib/Ethernet/Ethernet.o
W5100Class::initSS()                              ./arduinolib/Ethernet/utility/w5100.o
W5100Class::read(unsigned int)                    ./arduinolib/Ethernet/utility/w5100.o
                                                  ./arduinolib/Ethernet/EthernetUdp.o
                                                  ./arduinolib/Ethernet/EthernetClient.o
                                                  ./arduinolib/Ethernet/utility/socket.o
W5100Class::read(unsigned int, unsigned char*, unsigned int) ./arduinolib/Ethernet/utility/w5100.o
                                                  ./arduinolib/Ethernet/Ethernet.o
W5100Class::readGAR(unsigned char*)               ./arduinolib/Ethernet/Ethernet.o
W5100Class::readSIPR(unsigned char*)              ./arduinolib/Ethernet/Ethernet.o
W5100Class::readSUBR(unsigned char*)              ./arduinolib/Ethernet/Ethernet.o
W5100Class::readSn(unsigned char, unsigned int)   ./arduinolib/Ethernet/utility/socket.o
W5100Class::readSnCR(unsigned char)               ./arduinolib/Ethernet/utility/w5100.o
W5100Class::readSnIR(unsigned char)               ./arduinolib/Ethernet/utility/socket.o
W5100Class::readSnMR(unsigned char)               ./arduinolib/Ethernet/utility/socket.o
W5100Class::readSnRX_RD(unsigned char)            ./arduinolib/Ethernet/utility/socket.o
W5100Class::readSnRX_RSR(unsigned char)           ./arduinolib/Ethernet/utility/w5100.o
W5100Class::readSnSR(unsigned char)               ./arduinolib/Ethernet/utility/socket.o
W5100Class::readSnTX_FSR(unsigned char)           ./arduinolib/Ethernet/utility/w5100.o
W5100Class::readSnTX_WR(unsigned char)            ./arduinolib/Ethernet/utility/w5100.o
W5100Class::read_data(unsigned char, unsigned char volatile*, unsigned char volatile*, unsigned int) ./arduinolib/Ethernet/utility/w5100.o
                                                  ./arduinolib/Ethernet/utility/socket.o
W5100Class::recv_data_processing(unsigned char, unsigned char*, unsigned int, unsigned char) ./arduinolib/Ethernet/utility/w5100.o
                                                  ./arduinolib/Ethernet/utility/socket.o
W5100Class::resetSS()                             ./arduinolib/Ethernet/utility/w5100.o
W5100Class::send_data_processing(unsigned char, unsigned char const*, unsigned int) ./arduinolib/Ethernet/utility/w5100.o
                                                  ./arduinolib/Ethernet/utility/socket.o
W5100Class::send_data_processing_offset(unsigned char, unsigned int, unsigned char const*, unsigned int) ./arduinolib/Ethernet/utility/w5100.o
                                                  ./arduinolib/Ethernet/utility/socket.o
W5100Class::setGatewayIp(unsigned char*)          ./arduinolib/Ethernet/Ethernet.o
W5100Class::setIPAddress(unsigned char*)          ./arduinolib/Ethernet/Ethernet.o
W5100Class::setMACAddress(unsigned char*)         ./arduinolib/Ethernet/Ethernet.o
W5100Class::setSS()                               ./arduinolib/Ethernet/utility/w5100.o
W5100Class::setSubnetMask(unsigned char*)         ./arduinolib/Ethernet/Ethernet.o
W5100Class::write(unsigned int, unsigned char const*, unsigned int) ./arduinolib/Ethernet/utility/w5100.o
                                                  ./arduinolib/Ethernet/Ethernet.o
                                                  ./arduinolib/Ethernet/utility/socket.o
W5100Class::write(unsigned int, unsigned char)    ./arduinolib/Ethernet/utility/w5100.o
                                                  ./arduinolib/Ethernet/utility/socket.o
W5100Class::writeGAR(unsigned char*)              ./arduinolib/Ethernet/Ethernet.o
W5100Class::writeMR(unsigned char)                ./arduinolib/Ethernet/utility/w5100.o
W5100Class::writeRMSR(unsigned char)              ./arduinolib/Ethernet/utility/w5100.o
W5100Class::writeSHAR(unsigned char*)             ./arduinolib/Ethernet/Ethernet.o
W5100Class::writeSIPR(unsigned char*)             ./arduinolib/Ethernet/Ethernet.o
W5100Class::writeSUBR(unsigned char*)             ./arduinolib/Ethernet/Ethernet.o
W5100Class::writeSn(unsigned char, unsigned int, unsigned char) ./arduinolib/Ethernet/utility/socket.o
W5100Class::writeSn(unsigned char, unsigned int, unsigned char*, unsigned int) ./arduinolib/Ethernet/utility/socket.o
W5100Class::writeSnCR(unsigned char, unsigned char) ./arduinolib/Ethernet/utility/w5100.o
W5100Class::writeSnDIPR(unsigned char, unsigned char*) ./arduinolib/Ethernet/utility/socket.o
W5100Class::writeSnDPORT(unsigned char, unsigned int) ./arduinolib/Ethernet/utility/socket.o
W5100Class::writeSnIR(unsigned char, unsigned char) ./arduinolib/Ethernet/utility/socket.o
W5100Class::writeSnMR(unsigned char, unsigned char) ./arduinolib/Ethernet/utility/socket.o
W5100Class::writeSnPORT(unsigned char, unsigned int) ./arduinolib/Ethernet/utility/socket.o
W5100Class::writeSnRX_RD(unsigned char, unsigned int) ./arduinolib/Ethernet/utility/socket.o
W5100Class::writeSnTX_WR(unsigned char, unsigned int) ./arduinolib/Ethernet/utility/w5100.o
W5100Class::writeTMSR(unsigned char)              ./arduinolib/Ethernet/utility/w5100.o
Wire                                              ./arduinolib/Wire/Wire.o
                                                  ./lib/Chronodot.o
                                                  ./src/main.o
__addsf3                                          /usr/lib/gcc/avr/4.5.3/avr6/libgcc.a(_addsub_sf.o)
                                                  /storage/apps/eclipse-avr/workspace/ArduinoCore-1.0/Mega2560/libArduinoCore-1.0.a(Print.o)
                                                  ./lib/DallasTemperature.o
                                                  ./lib/Chronodot.o
                                                  ./src/main.o
__bad_interrupt                                   /usr/lib/gcc/avr/4.5.3/../../../avr/lib/avr6/crtm2560.o
__brkval                                          /usr/lib/gcc/avr/4.5.3/../../../avr/lib/avr6/libc.a(realloc.o)
                                                  /usr/lib/gcc/avr/4.5.3/../../../avr/lib/avr6/libc.a(malloc.o)
                                                  ./src/main.o
__bss_end                                         /usr/lib/gcc/avr/4.5.3/avr6/libgcc.a(_clear_bss.o)
                                                  ./src/main.o
__bss_start                                       /usr/lib/gcc/avr/4.5.3/avr6/libgcc.a(_clear_bss.o)
__clz_tab                                         /usr/lib/gcc/avr/4.5.3/avr6/libgcc.a(_clz.o)
                                                  /usr/lib/gcc/avr/4.5.3/avr6/libgcc.a(_clzsi2.o)
__clzsi2                                          /usr/lib/gcc/avr/4.5.3/avr6/libgcc.a(_clzsi2.o)
                                                  /usr/lib/gcc/avr/4.5.3/avr6/libgcc.a(_usi_to_sf.o)
                                                  /usr/lib/gcc/avr/4.5.3/avr6/libgcc.a(_si_to_sf.o)
__cmpsf2                                          /usr/lib/gcc/avr/4.5.3/../../../avr/lib/avr6/libc.a(cmpsf2.o)
__ctors_end                                       /usr/lib/gcc/avr/4.5.3/avr6/libgcc.a(_ctors.o)
__ctors_start                                     /usr/lib/gcc/avr/4.5.3/avr6/libgcc.a(_ctors.o)
__ctype_isfalse                                   /usr/lib/gcc/avr/4.5.3/../../../avr/lib/avr6/libc.a(cty_isfalse.o)
                                                  /usr/lib/gcc/avr/4.5.3/../../../avr/lib/avr6/libc.a(isspace.o)
__ctype_istrue                                    /usr/lib/gcc/avr/4.5.3/../../../avr/lib/avr6/libc.a(cty_isfalse.o)
__cxa_guard_abort                                 /storage/apps/eclipse-avr/workspace/ArduinoCore-1.0/Mega2560/libArduinoCore-1.0.a(new.o)
__cxa_guard_acquire                               /storage/apps/eclipse-avr/workspace/ArduinoCore-1.0/Mega2560/libArduinoCore-1.0.a(new.o)
__cxa_guard_release                               /storage/apps/eclipse-avr/workspace/ArduinoCore-1.0/Mega2560/libArduinoCore-1.0.a(new.o)
__cxa_pure_virtual                                /storage/apps/eclipse-avr/workspace/ArduinoCore-1.0/Mega2560/libArduinoCore-1.0.a(new.o)
                                                  /storage/apps/eclipse-avr/workspace/ArduinoCore-1.0/Mega2560/libArduinoCore-1.0.a(Print.o)
                                                  /storage/apps/eclipse-avr/workspace/ArduinoCore-1.0/Mega2560/libArduinoCore-1.0.a(IPAddress.o)
                                                  /storage/apps/eclipse-avr/workspace/ArduinoCore-1.0/Mega2560/libArduinoCore-1.0.a(HardwareSerial.o)
                                                  ./arduinolib/Ethernet/EthernetUdp.o
                                                  ./arduinolib/Ethernet/EthernetServer.o
                                                  ./arduinolib/Ethernet/EthernetClient.o
                                                  ./arduinolib/Ethernet/Ethernet.o
                                                  ./arduinolib/Ethernet/Dns.o
                                                  ./arduinolib/Ethernet/Dhcp.o
                                                  ./arduinolib/Wire/Wire.o
__data_end                                        /usr/lib/gcc/avr/4.5.3/avr6/libgcc.a(_copy_data.o)
__data_load_start                                 /usr/lib/gcc/avr/4.5.3/avr6/libgcc.a(_copy_data.o)
__data_start                                      /usr/lib/gcc/avr/4.5.3/avr6/libgcc.a(_copy_data.o)
__divmodhi4                                       /usr/lib/gcc/avr/4.5.3/avr6/libgcc.a(_divmodhi4.o)
                                                  /storage/apps/eclipse-avr/workspace/ArduinoCore-1.0/Mega2560/libArduinoCore-1.0.a(HardwareSerial.o)
__divmodsi4                                       /usr/lib/gcc/avr/4.5.3/avr6/libgcc.a(_divmodsi4.o)
                                                  /usr/lib/gcc/avr/4.5.3/../../../avr/lib/avr6/libc.a(random.o)
                                                  /storage/apps/eclipse-avr/workspace/ArduinoCore-1.0/Mega2560/libArduinoCore-1.0.a(WMath.o)
__divsf3                                          /usr/lib/gcc/avr/4.5.3/avr6/libgcc.a(_div_sf.o)
                                                  /storage/apps/eclipse-avr/workspace/ArduinoCore-1.0/Mega2560/libArduinoCore-1.0.a(Print.o)
                                                  ./lib/DallasTemperature.o
                                                  ./lib/Chronodot.o
__do_clear_bss                                    /usr/lib/gcc/avr/4.5.3/avr6/libgcc.a(_clear_bss.o)
                                                  /usr/lib/gcc/avr/4.5.3/../../../avr/lib/avr6/libc.a(errno.o)
                                                  /usr/lib/gcc/avr/4.5.3/../../../avr/lib/avr6/libc.a(strtok.o)
                                                  /usr/lib/gcc/avr/4.5.3/../../../avr/lib/avr6/libc.a(malloc.o)
                                                  /storage/apps/eclipse-avr/workspace/ArduinoCore-1.0/Mega2560/libArduinoCore-1.0.a(wiring.o)
                                                  /storage/apps/eclipse-avr/workspace/ArduinoCore-1.0/Mega2560/libArduinoCore-1.0.a(WString.o)
                                                  /storage/apps/eclipse-avr/workspace/ArduinoCore-1.0/Mega2560/libArduinoCore-1.0.a(IPAddress.o)
                                                  /storage/apps/eclipse-avr/workspace/ArduinoCore-1.0/Mega2560/libArduinoCore-1.0.a(HardwareSerial.o)
                                                  ./arduinolib/EEPROM/EEPROM.o
                                                  ./arduinolib/Ethernet/EthernetUdp.o
                                                  ./arduinolib/Ethernet/EthernetServer.o
                                                  ./arduinolib/Ethernet/EthernetClient.o
                                                  ./arduinolib/Ethernet/Ethernet.o
                                                  ./arduinolib/Ethernet/Dns.o
                                                  ./arduinolib/Ethernet/Dhcp.o
                                                  ./arduinolib/Ethernet/utility/w5100.o
                                                  ./arduinolib/Ethernet/utility/socket.o
                                                  ./arduinolib/SPI/SPI.o
                                                  ./arduinolib/Wire/Wire.o
                                                  ./arduinolib/Wire/utility/twi.o
                                                  ./lib/Chronodot.o
                                                  ./src/main.o
                                                  ./src/Config.o
__do_copy_data                                    /usr/lib/gcc/avr/4.5.3/avr6/libgcc.a(_copy_data.o)
                                                  /usr/lib/gcc/avr/4.5.3/../../../avr/lib/avr6/libc.a(random.o)
                                                  /usr/lib/gcc/avr/4.5.3/../../../avr/lib/avr6/libc.a(malloc.o)
                                                  /usr/lib/gcc/avr/4.5.3/avr6/libgcc.a(_clz.o)
                                                  /usr/lib/gcc/avr/4.5.3/avr6/libgcc.a(_thenan_sf.o)
                                                  /storage/apps/eclipse-avr/workspace/ArduinoCore-1.0/Mega2560/libArduinoCore-1.0.a(wiring_analog.o)
                                                  /storage/apps/eclipse-avr/workspace/ArduinoCore-1.0/Mega2560/libArduinoCore-1.0.a(WString.o)
                                                  /storage/apps/eclipse-avr/workspace/ArduinoCore-1.0/Mega2560/libArduinoCore-1.0.a(Print.o)
                                                  /storage/apps/eclipse-avr/workspace/ArduinoCore-1.0/Mega2560/libArduinoCore-1.0.a(IPAddress.o)
                                                  /storage/apps/eclipse-avr/workspace/ArduinoCore-1.0/Mega2560/libArduinoCore-1.0.a(HardwareSerial.o)
                                                  ./arduinolib/EEPROM/EEPROM.o
                                                  ./arduinolib/Ethernet/EthernetUdp.o
                                                  ./arduinolib/Ethernet/EthernetServer.o
                                                  ./arduinolib/Ethernet/EthernetClient.o
                                                  ./arduinolib/Ethernet/Ethernet.o
                                                  ./arduinolib/Ethernet/Dns.o
                                                  ./arduinolib/Ethernet/Dhcp.o
                                                  ./arduinolib/Ethernet/utility/w5100.o
                                                  ./arduinolib/Ethernet/utility/socket.o
                                                  ./arduinolib/SPI/SPI.o
                                                  ./arduinolib/Wire/Wire.o
                                                  ./arduinolib/Wire/utility/twi.o
                                                  ./lib/OneWire.o
                                                  ./lib/DallasTemperature.o
                                                  ./lib/Chronodot.o
                                                  ./src/main.o
                                                  ./src/Netmask.o
                                                  ./src/IpAddress.o
                                                  ./src/Gateway.o
                                                  ./src/Config.o
__do_global_ctors                                 /usr/lib/gcc/avr/4.5.3/avr6/libgcc.a(_ctors.o)
                                                  /storage/apps/eclipse-avr/workspace/ArduinoCore-1.0/Mega2560/libArduinoCore-1.0.a(IPAddress.o)
                                                  /storage/apps/eclipse-avr/workspace/ArduinoCore-1.0/Mega2560/libArduinoCore-1.0.a(HardwareSerial.o)
                                                  ./arduinolib/Ethernet/EthernetUdp.o
                                                  ./arduinolib/Ethernet/EthernetServer.o
                                                  ./arduinolib/Ethernet/EthernetClient.o
                                                  ./arduinolib/Ethernet/Ethernet.o
                                                  ./arduinolib/Ethernet/Dns.o
                                                  ./arduinolib/Ethernet/Dhcp.o
                                                  ./arduinolib/Wire/Wire.o
                                                  ./src/main.o
                                                  ./src/Config.o
__do_global_dtors                                 /usr/lib/gcc/avr/4.5.3/avr6/libgcc.a(_dtors.o)
                                                  ./src/main.o
__dtors_end                                       /usr/lib/gcc/avr/4.5.3/avr6/libgcc.a(_dtors.o)
__dtors_start                                     /usr/lib/gcc/avr/4.5.3/avr6/libgcc.a(_dtors.o)
__eerd_byte_m2560                                 /usr/lib/gcc/avr/4.5.3/../../../avr/lib/avr6/libc.a(eerd_byte_atmega2560.o)
                                                  ./arduinolib/EEPROM/EEPROM.o
__eewr_byte_m2560                                 /usr/lib/gcc/avr/4.5.3/../../../avr/lib/avr6/libc.a(eewr_byte_atmega2560.o)
                                                  ./arduinolib/EEPROM/EEPROM.o
__eewr_r18_m2560                                  /usr/lib/gcc/avr/4.5.3/../../../avr/lib/avr6/libc.a(eewr_byte_atmega2560.o)
__epilogue_restores__                             /usr/lib/gcc/avr/4.5.3/avr6/libgcc.a(_epilogue.o)
                                                  /usr/lib/gcc/avr/4.5.3/avr6/libgcc.a(_pack_sf.o)
                                                  /usr/lib/gcc/avr/4.5.3/avr6/libgcc.a(_usi_to_sf.o)
                                                  /usr/lib/gcc/avr/4.5.3/avr6/libgcc.a(_sf_to_si.o)
                                                  /usr/lib/gcc/avr/4.5.3/avr6/libgcc.a(_si_to_sf.o)
                                                  /usr/lib/gcc/avr/4.5.3/avr6/libgcc.a(_lt_sf.o)
                                                  /usr/lib/gcc/avr/4.5.3/avr6/libgcc.a(_ge_sf.o)
                                                  /usr/lib/gcc/avr/4.5.3/avr6/libgcc.a(_div_sf.o)
                                                  /usr/lib/gcc/avr/4.5.3/avr6/libgcc.a(_mul_sf.o)
                                                  /usr/lib/gcc/avr/4.5.3/avr6/libgcc.a(_addsub_sf.o)
__eqsf2                                           /usr/lib/gcc/avr/4.5.3/../../../avr/lib/avr6/libc.a(cmpsf2.o)
                                                  /usr/lib/gcc/avr/4.5.3/../../../avr/lib/avr6/libc.a(strtod.o)
__fixsfsi                                         /usr/lib/gcc/avr/4.5.3/avr6/libgcc.a(_sf_to_si.o)
                                                  /usr/lib/gcc/avr/4.5.3/avr6/libgcc.a(_fixunssfsi.o)
                                                  /storage/apps/eclipse-avr/workspace/ArduinoCore-1.0/Mega2560/libArduinoCore-1.0.a(Print.o)
                                                  ./lib/DallasTemperature.o
                                                  ./lib/Chronodot.o
__fixunssfsi                                      /usr/lib/gcc/avr/4.5.3/avr6/libgcc.a(_fixunssfsi.o)
                                                  /storage/apps/eclipse-avr/workspace/ArduinoCore-1.0/Mega2560/libArduinoCore-1.0.a(Print.o)
__floatsisf                                       /usr/lib/gcc/avr/4.5.3/avr6/libgcc.a(_si_to_sf.o)
                                                  /storage/apps/eclipse-avr/workspace/ArduinoCore-1.0/Mega2560/libArduinoCore-1.0.a(Print.o)
                                                  ./lib/DallasTemperature.o
                                                  ./lib/Chronodot.o
__floatunsisf                                     /usr/lib/gcc/avr/4.5.3/avr6/libgcc.a(_usi_to_sf.o)
                                                  /usr/lib/gcc/avr/4.5.3/../../../avr/lib/avr6/libc.a(strtod.o)
                                                  /storage/apps/eclipse-avr/workspace/ArduinoCore-1.0/Mega2560/libArduinoCore-1.0.a(Print.o)
                                                  ./lib/DallasTemperature.o
__flp                                             /usr/lib/gcc/avr/4.5.3/../../../avr/lib/avr6/libc.a(realloc.o)
                                                  /usr/lib/gcc/avr/4.5.3/../../../avr/lib/avr6/libc.a(malloc.o)
__fp_cmp                                          /usr/lib/gcc/avr/4.5.3/../../../avr/lib/avr6/libc.a(fp_cmp.o)
                                                  /usr/lib/gcc/avr/4.5.3/../../../avr/lib/avr6/libc.a(cmpsf2.o)
__fpcmp_parts_f                                   /usr/lib/gcc/avr/4.5.3/avr6/libgcc.a(_fpcmp_parts_sf.o)
                                                  /usr/lib/gcc/avr/4.5.3/avr6/libgcc.a(_lt_sf.o)
                                                  /usr/lib/gcc/avr/4.5.3/avr6/libgcc.a(_ge_sf.o)
__ftoa_engine                                     /usr/lib/gcc/avr/4.5.3/../../../avr/lib/avr6/libc.a(ftoa_engine.o)
                                                  /usr/lib/gcc/avr/4.5.3/../../../avr/lib/avr6/libc.a(dtoa_prf.o)
__gesf2                                           /usr/lib/gcc/avr/4.5.3/avr6/libgcc.a(_ge_sf.o)
                                                  /usr/lib/gcc/avr/4.5.3/avr6/libgcc.a(_fixunssfsi.o)
__heap_end                                        /usr/lib/gcc/avr/4.5.3/../../../avr/lib/avr6/crtm2560.o
                                                  /usr/lib/gcc/avr/4.5.3/../../../avr/lib/avr6/libc.a(malloc.o)
__heap_start                                      /usr/lib/gcc/avr/4.5.3/../../../avr/lib/avr6/libc.a(malloc.o)
__init                                            /usr/lib/gcc/avr/4.5.3/../../../avr/lib/avr6/crtm2560.o
__lesf2                                           /usr/lib/gcc/avr/4.5.3/../../../avr/lib/avr6/libc.a(cmpsf2.o)
__ltsf2                                           /usr/lib/gcc/avr/4.5.3/../../../avr/lib/avr6/libc.a(cmpsf2.o)
                                                  /usr/lib/gcc/avr/4.5.3/avr6/libgcc.a(_lt_sf.o)
                                                  /storage/apps/eclipse-avr/workspace/ArduinoCore-1.0/Mega2560/libArduinoCore-1.0.a(Print.o)
__malloc_heap_end                                 /usr/lib/gcc/avr/4.5.3/../../../avr/lib/avr6/libc.a(malloc.o)
                                                  /usr/lib/gcc/avr/4.5.3/../../../avr/lib/avr6/libc.a(realloc.o)
__malloc_heap_start                               /usr/lib/gcc/avr/4.5.3/../../../avr/lib/avr6/libc.a(malloc.o)
__malloc_margin                                   /usr/lib/gcc/avr/4.5.3/../../../avr/lib/avr6/libc.a(malloc.o)
                                                  /usr/lib/gcc/avr/4.5.3/../../../avr/lib/avr6/libc.a(realloc.o)
__mulhi_const_10                                  /usr/lib/gcc/avr/4.5.3/../../../avr/lib/avr6/libc.a(mul10.o)
                                                  /usr/lib/gcc/avr/4.5.3/../../../avr/lib/avr6/libc.a(atoi.o)
__mulsf3                                          /usr/lib/gcc/avr/4.5.3/avr6/libgcc.a(_mul_sf.o)
                                                  /usr/lib/gcc/avr/4.5.3/../../../avr/lib/avr6/libc.a(strtod.o)
                                                  /storage/apps/eclipse-avr/workspace/ArduinoCore-1.0/Mega2560/libArduinoCore-1.0.a(Print.o)
                                                  ./lib/DallasTemperature.o
                                                  ./lib/Chronodot.o
__mulsi3                                          /usr/lib/gcc/avr/4.5.3/avr6/libgcc.a(_mulsi3.o)
                                                  /usr/lib/gcc/avr/4.5.3/../../../avr/lib/avr6/libc.a(random.o)
                                                  /storage/apps/eclipse-avr/workspace/ArduinoCore-1.0/Mega2560/libArduinoCore-1.0.a(WMath.o)
                                                  ./lib/Chronodot.o
__mulsi_const_10                                  /usr/lib/gcc/avr/4.5.3/../../../avr/lib/avr6/libc.a(mulsi10.o)
                                                  /usr/lib/gcc/avr/4.5.3/../../../avr/lib/avr6/libc.a(atol.o)
__nesf2                                           /usr/lib/gcc/avr/4.5.3/../../../avr/lib/avr6/libc.a(cmpsf2.o)
                                                  /usr/lib/gcc/avr/4.5.3/../../../avr/lib/avr6/libc.a(strtod.o)
__pack_f                                          /usr/lib/gcc/avr/4.5.3/avr6/libgcc.a(_pack_sf.o)
                                                  /usr/lib/gcc/avr/4.5.3/avr6/libgcc.a(_usi_to_sf.o)
                                                  /usr/lib/gcc/avr/4.5.3/avr6/libgcc.a(_si_to_sf.o)
                                                  /usr/lib/gcc/avr/4.5.3/avr6/libgcc.a(_div_sf.o)
                                                  /usr/lib/gcc/avr/4.5.3/avr6/libgcc.a(_mul_sf.o)
                                                  /usr/lib/gcc/avr/4.5.3/avr6/libgcc.a(_addsub_sf.o)
__prologue_saves__                                /usr/lib/gcc/avr/4.5.3/avr6/libgcc.a(_prologue.o)
                                                  /usr/lib/gcc/avr/4.5.3/avr6/libgcc.a(_usi_to_sf.o)
                                                  /usr/lib/gcc/avr/4.5.3/avr6/libgcc.a(_sf_to_si.o)
                                                  /usr/lib/gcc/avr/4.5.3/avr6/libgcc.a(_si_to_sf.o)
                                                  /usr/lib/gcc/avr/4.5.3/avr6/libgcc.a(_lt_sf.o)
                                                  /usr/lib/gcc/avr/4.5.3/avr6/libgcc.a(_ge_sf.o)
                                                  /usr/lib/gcc/avr/4.5.3/avr6/libgcc.a(_div_sf.o)
                                                  /usr/lib/gcc/avr/4.5.3/avr6/libgcc.a(_mul_sf.o)
                                                  /usr/lib/gcc/avr/4.5.3/avr6/libgcc.a(_addsub_sf.o)
__stack                                           /usr/lib/gcc/avr/4.5.3/../../../avr/lib/avr6/crtm2560.o
__subsf3                                          /usr/lib/gcc/avr/4.5.3/avr6/libgcc.a(_addsub_sf.o)
                                                  /usr/lib/gcc/avr/4.5.3/avr6/libgcc.a(_fixunssfsi.o)
                                                  /storage/apps/eclipse-avr/workspace/ArduinoCore-1.0/Mega2560/libArduinoCore-1.0.a(Print.o)
                                                  ./lib/DallasTemperature.o
                                                  ./src/main.o
__tablejump_elpm__                                /usr/lib/gcc/avr/4.5.3/avr6/libgcc.a(_tablejump_elpm.o)
                                                  /usr/lib/gcc/avr/4.5.3/avr6/libgcc.a(_dtors.o)
                                                  /usr/lib/gcc/avr/4.5.3/avr6/libgcc.a(_ctors.o)
__thenan_sf                                       /usr/lib/gcc/avr/4.5.3/avr6/libgcc.a(_thenan_sf.o)
                                                  /usr/lib/gcc/avr/4.5.3/avr6/libgcc.a(_div_sf.o)
                                                  /usr/lib/gcc/avr/4.5.3/avr6/libgcc.a(_mul_sf.o)
                                                  /usr/lib/gcc/avr/4.5.3/avr6/libgcc.a(_addsub_sf.o)
__udivmodhi4                                      /usr/lib/gcc/avr/4.5.3/avr6/libgcc.a(_udivmodhi4.o)
                                                  /usr/lib/gcc/avr/4.5.3/../../../avr/lib/avr6/libc.a(utoa.o)
                                                  /usr/lib/gcc/avr/4.5.3/../../../avr/lib/avr6/libc.a(itoa.o)
                                                  /usr/lib/gcc/avr/4.5.3/avr6/libgcc.a(_divmodhi4.o)
                                                  ./lib/Chronodot.o
__udivmodqi4                                      /usr/lib/gcc/avr/4.5.3/avr6/libgcc.a(_udivmodqi4.o)
                                                  ./lib/Chronodot.o
__udivmodsi4                                      /usr/lib/gcc/avr/4.5.3/avr6/libgcc.a(_udivmodsi4.o)
                                                  /usr/lib/gcc/avr/4.5.3/../../../avr/lib/avr6/libc.a(ultoa.o)
                                                  /usr/lib/gcc/avr/4.5.3/../../../avr/lib/avr6/libc.a(ltoa.o)
                                                  /usr/lib/gcc/avr/4.5.3/avr6/libgcc.a(_divmodsi4.o)
                                                  /storage/apps/eclipse-avr/workspace/ArduinoCore-1.0/Mega2560/libArduinoCore-1.0.a(Print.o)
                                                  /storage/apps/eclipse-avr/workspace/ArduinoCore-1.0/Mega2560/libArduinoCore-1.0.a(HardwareSerial.o)
                                                  ./arduinolib/Ethernet/Dhcp.o
                                                  ./lib/Chronodot.o
__ultoa_invert                                    /usr/lib/gcc/avr/4.5.3/../../../avr/lib/avr6/libc.a(ultoa_invert.o)
                                                  /usr/lib/gcc/avr/4.5.3/../../../avr/lib/avr6/libc.a(vfprintf_std.o)
__unpack_f                                        /usr/lib/gcc/avr/4.5.3/avr6/libgcc.a(_unpack_sf.o)
                                                  /usr/lib/gcc/avr/4.5.3/avr6/libgcc.a(_sf_to_si.o)
                                                  /usr/lib/gcc/avr/4.5.3/avr6/libgcc.a(_lt_sf.o)
                                                  /usr/lib/gcc/avr/4.5.3/avr6/libgcc.a(_ge_sf.o)
                                                  /usr/lib/gcc/avr/4.5.3/avr6/libgcc.a(_div_sf.o)
                                                  /usr/lib/gcc/avr/4.5.3/avr6/libgcc.a(_mul_sf.o)
                                                  /usr/lib/gcc/avr/4.5.3/avr6/libgcc.a(_addsub_sf.o)
__vector_1                                        /usr/lib/gcc/avr/4.5.3/../../../avr/lib/avr6/crtm2560.o
__vector_10                                       /usr/lib/gcc/avr/4.5.3/../../../avr/lib/avr6/crtm2560.o
__vector_11                                       /usr/lib/gcc/avr/4.5.3/../../../avr/lib/avr6/crtm2560.o
__vector_12                                       /usr/lib/gcc/avr/4.5.3/../../../avr/lib/avr6/crtm2560.o
__vector_13                                       /usr/lib/gcc/avr/4.5.3/../../../avr/lib/avr6/crtm2560.o
__vector_14                                       /usr/lib/gcc/avr/4.5.3/../../../avr/lib/avr6/crtm2560.o
__vector_15                                       /usr/lib/gcc/avr/4.5.3/../../../avr/lib/avr6/crtm2560.o
__vector_16                                       /usr/lib/gcc/avr/4.5.3/../../../avr/lib/avr6/crtm2560.o
__vector_17                                       /usr/lib/gcc/avr/4.5.3/../../../avr/lib/avr6/crtm2560.o
__vector_18                                       /usr/lib/gcc/avr/4.5.3/../../../avr/lib/avr6/crtm2560.o
__vector_19                                       /usr/lib/gcc/avr/4.5.3/../../../avr/lib/avr6/crtm2560.o
__vector_2                                        /usr/lib/gcc/avr/4.5.3/../../../avr/lib/avr6/crtm2560.o
__vector_20                                       /usr/lib/gcc/avr/4.5.3/../../../avr/lib/avr6/crtm2560.o
__vector_21                                       /usr/lib/gcc/avr/4.5.3/../../../avr/lib/avr6/crtm2560.o
__vector_22                                       /usr/lib/gcc/avr/4.5.3/../../../avr/lib/avr6/crtm2560.o
__vector_23                                       /storage/apps/eclipse-avr/workspace/ArduinoCore-1.0/Mega2560/libArduinoCore-1.0.a(wiring.o)
                                                  /usr/lib/gcc/avr/4.5.3/../../../avr/lib/avr6/crtm2560.o
__vector_24                                       /usr/lib/gcc/avr/4.5.3/../../../avr/lib/avr6/crtm2560.o
__vector_25                                       /storage/apps/eclipse-avr/workspace/ArduinoCore-1.0/Mega2560/libArduinoCore-1.0.a(HardwareSerial.o)
                                                  /usr/lib/gcc/avr/4.5.3/../../../avr/lib/avr6/crtm2560.o
__vector_26                                       /storage/apps/eclipse-avr/workspace/ArduinoCore-1.0/Mega2560/libArduinoCore-1.0.a(HardwareSerial.o)
                                                  /usr/lib/gcc/avr/4.5.3/../../../avr/lib/avr6/crtm2560.o
__vector_27                                       /usr/lib/gcc/avr/4.5.3/../../../avr/lib/avr6/crtm2560.o
__vector_28                                       /usr/lib/gcc/avr/4.5.3/../../../avr/lib/avr6/crtm2560.o
__vector_29                                       /usr/lib/gcc/avr/4.5.3/../../../avr/lib/avr6/crtm2560.o
__vector_3                                        /usr/lib/gcc/avr/4.5.3/../../../avr/lib/avr6/crtm2560.o
__vector_30                                       /usr/lib/gcc/avr/4.5.3/../../../avr/lib/avr6/crtm2560.o
__vector_31                                       /usr/lib/gcc/avr/4.5.3/../../../avr/lib/avr6/crtm2560.o
__vector_32                                       /usr/lib/gcc/avr/4.5.3/../../../avr/lib/avr6/crtm2560.o
__vector_33                                       /usr/lib/gcc/avr/4.5.3/../../../avr/lib/avr6/crtm2560.o
__vector_34                                       /usr/lib/gcc/avr/4.5.3/../../../avr/lib/avr6/crtm2560.o
__vector_35                                       /usr/lib/gcc/avr/4.5.3/../../../avr/lib/avr6/crtm2560.o
__vector_36                                       /storage/apps/eclipse-avr/workspace/ArduinoCore-1.0/Mega2560/libArduinoCore-1.0.a(HardwareSerial.o)
                                                  /usr/lib/gcc/avr/4.5.3/../../../avr/lib/avr6/crtm2560.o
__vector_37                                       /storage/apps/eclipse-avr/workspace/ArduinoCore-1.0/Mega2560/libArduinoCore-1.0.a(HardwareSerial.o)
                                                  /usr/lib/gcc/avr/4.5.3/../../../avr/lib/avr6/crtm2560.o
__vector_38                                       /usr/lib/gcc/avr/4.5.3/../../../avr/lib/avr6/crtm2560.o
__vector_39                                       ./arduinolib/Wire/utility/twi.o
                                                  /usr/lib/gcc/avr/4.5.3/../../../avr/lib/avr6/crtm2560.o
__vector_4                                        /usr/lib/gcc/avr/4.5.3/../../../avr/lib/avr6/crtm2560.o
__vector_40                                       /usr/lib/gcc/avr/4.5.3/../../../avr/lib/avr6/crtm2560.o
__vector_41                                       /usr/lib/gcc/avr/4.5.3/../../../avr/lib/avr6/crtm2560.o
__vector_42                                       /usr/lib/gcc/avr/4.5.3/../../../avr/lib/avr6/crtm2560.o
__vector_43                                       /usr/lib/gcc/avr/4.5.3/../../../avr/lib/avr6/crtm2560.o
__vector_44                                       /usr/lib/gcc/avr/4.5.3/../../../avr/lib/avr6/crtm2560.o
__vector_45                                       /usr/lib/gcc/avr/4.5.3/../../../avr/lib/avr6/crtm2560.o
__vector_46                                       /usr/lib/gcc/avr/4.5.3/../../../avr/lib/avr6/crtm2560.o
__vector_47                                       /usr/lib/gcc/avr/4.5.3/../../../avr/lib/avr6/crtm2560.o
__vector_48                                       /usr/lib/gcc/avr/4.5.3/../../../avr/lib/avr6/crtm2560.o
__vector_49                                       /usr/lib/gcc/avr/4.5.3/../../../avr/lib/avr6/crtm2560.o
__vector_5                                        /usr/lib/gcc/avr/4.5.3/../../../avr/lib/avr6/crtm2560.o
__vector_50                                       /usr/lib/gcc/avr/4.5.3/../../../avr/lib/avr6/crtm2560.o
__vector_51                                       /storage/apps/eclipse-avr/workspace/ArduinoCore-1.0/Mega2560/libArduinoCore-1.0.a(HardwareSerial.o)
                                                  /usr/lib/gcc/avr/4.5.3/../../../avr/lib/avr6/crtm2560.o
__vector_52                                       /storage/apps/eclipse-avr/workspace/ArduinoCore-1.0/Mega2560/libArduinoCore-1.0.a(HardwareSerial.o)
                                                  /usr/lib/gcc/avr/4.5.3/../../../avr/lib/avr6/crtm2560.o
__vector_53                                       /usr/lib/gcc/avr/4.5.3/../../../avr/lib/avr6/crtm2560.o
__vector_54                                       /storage/apps/eclipse-avr/workspace/ArduinoCore-1.0/Mega2560/libArduinoCore-1.0.a(HardwareSerial.o)
                                                  /usr/lib/gcc/avr/4.5.3/../../../avr/lib/avr6/crtm2560.o
__vector_55                                       /storage/apps/eclipse-avr/workspace/ArduinoCore-1.0/Mega2560/libArduinoCore-1.0.a(HardwareSerial.o)
                                                  /usr/lib/gcc/avr/4.5.3/../../../avr/lib/avr6/crtm2560.o
__vector_56                                       /usr/lib/gcc/avr/4.5.3/../../../avr/lib/avr6/crtm2560.o
__vector_6                                        /usr/lib/gcc/avr/4.5.3/../../../avr/lib/avr6/crtm2560.o
__vector_7                                        /usr/lib/gcc/avr/4.5.3/../../../avr/lib/avr6/crtm2560.o
__vector_8                                        /usr/lib/gcc/avr/4.5.3/../../../avr/lib/avr6/crtm2560.o
__vector_9                                        /usr/lib/gcc/avr/4.5.3/../../../avr/lib/avr6/crtm2560.o
__vector_default                                  /usr/lib/gcc/avr/4.5.3/../../../avr/lib/avr6/crtm2560.o
__vectors                                         /usr/lib/gcc/avr/4.5.3/../../../avr/lib/avr6/crtm2560.o
_div                                              /usr/lib/gcc/avr/4.5.3/avr6/libgcc.a(_divmodhi4.o)
_exit                                             /usr/lib/gcc/avr/4.5.3/avr6/libgcc.a(_exit.o)
analogRead                                        /storage/apps/eclipse-avr/workspace/ArduinoCore-1.0/Mega2560/libArduinoCore-1.0.a(wiring_analog.o)
                                                  ./src/main.o
analogReference                                   /storage/apps/eclipse-avr/workspace/ArduinoCore-1.0/Mega2560/libArduinoCore-1.0.a(wiring_analog.o)
analogWrite                                       /storage/apps/eclipse-avr/workspace/ArduinoCore-1.0/Mega2560/libArduinoCore-1.0.a(wiring_analog.o)
                                                  ./src/main.o
analog_reference                                  /storage/apps/eclipse-avr/workspace/ArduinoCore-1.0/Mega2560/libArduinoCore-1.0.a(wiring_analog.o)
apiKey                                            ./src/main.o
aquariumTemp                                      ./src/main.o
atof                                              /usr/lib/gcc/avr/4.5.3/../../../avr/lib/avr6/libc.a(atof.o)
                                                  ./src/main.o
atoi                                              /usr/lib/gcc/avr/4.5.3/../../../avr/lib/avr6/libc.a(atoi.o)
                                                  ./src/main.o
atol                                              /usr/lib/gcc/avr/4.5.3/../../../avr/lib/avr6/libc.a(atol.o)
                                                  /storage/apps/eclipse-avr/workspace/ArduinoCore-1.0/Mega2560/libArduinoCore-1.0.a(WString.o)
availableMemory()                                 ./src/main.o
bufferData(unsigned char, unsigned int, unsigned char const*, unsigned int) ./arduinolib/Ethernet/utility/socket.o
                                                  ./arduinolib/Ethernet/EthernetUdp.o
checkPh()                                         ./src/main.o
close(unsigned char)                              ./arduinolib/Ethernet/utility/socket.o
                                                  ./arduinolib/Ethernet/EthernetUdp.o
                                                  ./arduinolib/Ethernet/EthernetClient.o
connect(unsigned char, unsigned char*, unsigned int) ./arduinolib/Ethernet/utility/socket.o
                                                  ./arduinolib/Ethernet/EthernetClient.o
dateString                                        ./src/main.o
dateTimeString                                    ./src/main.o
debug(String)                                     ./src/main.o
delay                                             /storage/apps/eclipse-avr/workspace/ArduinoCore-1.0/Mega2560/libArduinoCore-1.0.a(wiring.o)
                                                  ./arduinolib/Ethernet/EthernetClient.o
                                                  ./arduinolib/Ethernet/Dns.o
                                                  ./arduinolib/Ethernet/Dhcp.o
                                                  ./arduinolib/Ethernet/utility/w5100.o
                                                  ./lib/DallasTemperature.o
                                                  ./src/main.o
delayMicroseconds                                 /storage/apps/eclipse-avr/workspace/ArduinoCore-1.0/Mega2560/libArduinoCore-1.0.a(wiring.o)
                                                  ./lib/OneWire.o
digitalRead                                       /storage/apps/eclipse-avr/workspace/ArduinoCore-1.0/Mega2560/libArduinoCore-1.0.a(wiring_digital.o)
                                                  ./src/main.o
digitalWrite                                      /storage/apps/eclipse-avr/workspace/ArduinoCore-1.0/Mega2560/libArduinoCore-1.0.a(wiring_digital.o)
                                                  /storage/apps/eclipse-avr/workspace/ArduinoCore-1.0/Mega2560/libArduinoCore-1.0.a(wiring_analog.o)
                                                  ./arduinolib/SPI/SPI.o
                                                  ./arduinolib/Wire/utility/twi.o
                                                  ./src/main.o
digital_pin_to_bit_mask_PGM                       /storage/apps/eclipse-avr/workspace/ArduinoCore-1.0/Mega2560/libArduinoCore-1.0.a(wiring_digital.o)
                                                  ./lib/OneWire.o
digital_pin_to_port_PGM                           /storage/apps/eclipse-avr/workspace/ArduinoCore-1.0/Mega2560/libArduinoCore-1.0.a(wiring_digital.o)
                                                  ./lib/OneWire.o
digital_pin_to_timer_PGM                          /storage/apps/eclipse-avr/workspace/ArduinoCore-1.0/Mega2560/libArduinoCore-1.0.a(wiring_digital.o)
                                                  /storage/apps/eclipse-avr/workspace/ArduinoCore-1.0/Mega2560/libArduinoCore-1.0.a(wiring_analog.o)
disconnect(unsigned char)                         ./arduinolib/Ethernet/utility/socket.o
                                                  ./arduinolib/Ethernet/EthernetClient.o
dtoa_prf                                          /usr/lib/gcc/avr/4.5.3/../../../avr/lib/avr6/libc.a(dtoa_prf.o)
                                                  /usr/lib/gcc/avr/4.5.3/../../../avr/lib/avr6/libc.a(dtostrf.o)
dtostrf                                           /usr/lib/gcc/avr/4.5.3/../../../avr/lib/avr6/libc.a(dtostrf.o)
                                                  ./src/main.o
errno                                             /usr/lib/gcc/avr/4.5.3/../../../avr/lib/avr6/libc.a(errno.o)
                                                  /usr/lib/gcc/avr/4.5.3/../../../avr/lib/avr6/libc.a(strtod.o)
ethernetPin                                       ./src/main.o
exit                                              /usr/lib/gcc/avr/4.5.3/avr6/libgcc.a(_exit.o)
                                                  /usr/lib/gcc/avr/4.5.3/../../../avr/lib/avr6/crtm2560.o
fputc                                             /usr/lib/gcc/avr/4.5.3/../../../avr/lib/avr6/libc.a(fputc.o)
                                                  /usr/lib/gcc/avr/4.5.3/../../../avr/lib/avr6/libc.a(vfprintf_std.o)
free                                              /usr/lib/gcc/avr/4.5.3/../../../avr/lib/avr6/libc.a(malloc.o)
                                                  /usr/lib/gcc/avr/4.5.3/../../../avr/lib/avr6/libc.a(realloc.o)
                                                  /storage/apps/eclipse-avr/workspace/ArduinoCore-1.0/Mega2560/libArduinoCore-1.0.a(new.o)
                                                  /storage/apps/eclipse-avr/workspace/ArduinoCore-1.0/Mega2560/libArduinoCore-1.0.a(WString.o)
gateway                                           ./src/main.o
httpClient                                        ./src/main.o
httpServer                                        ./src/main.o
igmpsend(unsigned char, unsigned char const*, unsigned int) ./arduinolib/Ethernet/utility/socket.o
init                                              /storage/apps/eclipse-avr/workspace/ArduinoCore-1.0/Mega2560/libArduinoCore-1.0.a(wiring.o)
                                                  ./src/main.o
ipAddress                                         ./src/main.o
isspace                                           /usr/lib/gcc/avr/4.5.3/../../../avr/lib/avr6/libc.a(isspace.o)
                                                  /usr/lib/gcc/avr/4.5.3/../../../avr/lib/avr6/libc.a(strtod.o)
                                                  /storage/apps/eclipse-avr/workspace/ArduinoCore-1.0/Mega2560/libArduinoCore-1.0.a(WString.o)
itoa                                              /usr/lib/gcc/avr/4.5.3/../../../avr/lib/avr6/libc.a(itoa.o)
                                                  /storage/apps/eclipse-avr/workspace/ArduinoCore-1.0/Mega2560/libArduinoCore-1.0.a(WString.o)
listen(unsigned char)                             ./arduinolib/Ethernet/utility/socket.o
                                                  ./arduinolib/Ethernet/EthernetServer.o
loop                                              ./src/main.o
ltoa                                              /usr/lib/gcc/avr/4.5.3/../../../avr/lib/avr6/libc.a(ltoa.o)
                                                  /storage/apps/eclipse-avr/workspace/ArduinoCore-1.0/Mega2560/libArduinoCore-1.0.a(WString.o)
mac                                               ./src/main.o
mailServer                                        ./src/main.o
main                                              ./src/main.o
                                                  /usr/lib/gcc/avr/4.5.3/../../../avr/lib/avr6/crtm2560.o
maintenanceInProgress                             ./src/main.o
makeWord(unsigned char, unsigned char)            /storage/apps/eclipse-avr/workspace/ArduinoCore-1.0/Mega2560/libArduinoCore-1.0.a(WMath.o)
makeWord(unsigned int)                            /storage/apps/eclipse-avr/workspace/ArduinoCore-1.0/Mega2560/libArduinoCore-1.0.a(WMath.o)
malloc                                            /usr/lib/gcc/avr/4.5.3/../../../avr/lib/avr6/libc.a(malloc.o)
                                                  /usr/lib/gcc/avr/4.5.3/../../../avr/lib/avr6/libc.a(realloc.o)
                                                  /storage/apps/eclipse-avr/workspace/ArduinoCore-1.0/Mega2560/libArduinoCore-1.0.a(new.o)
map(long, long, long, long, long)                 /storage/apps/eclipse-avr/workspace/ArduinoCore-1.0/Mega2560/libArduinoCore-1.0.a(WMath.o)
memcmp                                            /usr/lib/gcc/avr/4.5.3/../../../avr/lib/avr6/libc.a(memcmp.o)
                                                  /storage/apps/eclipse-avr/workspace/ArduinoCore-1.0/Mega2560/libArduinoCore-1.0.a(IPAddress.o)
                                                  ./arduinolib/Ethernet/Dhcp.o
memcpy                                            /usr/lib/gcc/avr/4.5.3/../../../avr/lib/avr6/libc.a(memcpy.o)
                                                  /usr/lib/gcc/avr/4.5.3/../../../avr/lib/avr6/libc.a(memmove.o)
                                                  /usr/lib/gcc/avr/4.5.3/../../../avr/lib/avr6/libc.a(realloc.o)
                                                  /storage/apps/eclipse-avr/workspace/ArduinoCore-1.0/Mega2560/libArduinoCore-1.0.a(WString.o)
                                                  ./arduinolib/Ethernet/Dhcp.o
                                                  ./src/main.o
memmove                                           /usr/lib/gcc/avr/4.5.3/../../../avr/lib/avr6/libc.a(memmove.o)
                                                  /storage/apps/eclipse-avr/workspace/ArduinoCore-1.0/Mega2560/libArduinoCore-1.0.a(WString.o)
memset                                            /usr/lib/gcc/avr/4.5.3/../../../avr/lib/avr6/libc.a(memset.o)
                                                  ./arduinolib/Ethernet/Dhcp.o
micros                                            /storage/apps/eclipse-avr/workspace/ArduinoCore-1.0/Mega2560/libArduinoCore-1.0.a(wiring.o)
millis                                            /storage/apps/eclipse-avr/workspace/ArduinoCore-1.0/Mega2560/libArduinoCore-1.0.a(wiring.o)
                                                  ./arduinolib/Ethernet/EthernetClient.o
                                                  ./arduinolib/Ethernet/Dns.o
                                                  ./arduinolib/Ethernet/Dhcp.o
                                                  ./lib/DallasTemperature.o
                                                  ./lib/Chronodot.o
                                                  ./src/main.o
netmask                                           ./src/main.o
now                                               ./src/main.o
oneWire                                           ./src/main.o
operator delete(void*)                            /storage/apps/eclipse-avr/workspace/ArduinoCore-1.0/Mega2560/libArduinoCore-1.0.a(new.o)
operator new(unsigned int)                        /storage/apps/eclipse-avr/workspace/ArduinoCore-1.0/Mega2560/libArduinoCore-1.0.a(new.o)
operator+(StringSumHelper const&, String const&)  /storage/apps/eclipse-avr/workspace/ArduinoCore-1.0/Mega2560/libArduinoCore-1.0.a(WString.o)
                                                  ./src/main.o
operator+(StringSumHelper const&, char const*)    /storage/apps/eclipse-avr/workspace/ArduinoCore-1.0/Mega2560/libArduinoCore-1.0.a(WString.o)
                                                  ./src/main.o
operator+(StringSumHelper const&, char)           /storage/apps/eclipse-avr/workspace/ArduinoCore-1.0/Mega2560/libArduinoCore-1.0.a(WString.o)
operator+(StringSumHelper const&, int)            /storage/apps/eclipse-avr/workspace/ArduinoCore-1.0/Mega2560/libArduinoCore-1.0.a(WString.o)
operator+(StringSumHelper const&, long)           /storage/apps/eclipse-avr/workspace/ArduinoCore-1.0/Mega2560/libArduinoCore-1.0.a(WString.o)
operator+(StringSumHelper const&, unsigned char)  /storage/apps/eclipse-avr/workspace/ArduinoCore-1.0/Mega2560/libArduinoCore-1.0.a(WString.o)
operator+(StringSumHelper const&, unsigned int)   /storage/apps/eclipse-avr/workspace/ArduinoCore-1.0/Mega2560/libArduinoCore-1.0.a(WString.o)
operator+(StringSumHelper const&, unsigned long)  /storage/apps/eclipse-avr/workspace/ArduinoCore-1.0/Mega2560/libArduinoCore-1.0.a(WString.o)
pH                                                ./src/main.o
peek(unsigned char, unsigned char*)               ./arduinolib/Ethernet/utility/socket.o
                                                  ./arduinolib/Ethernet/EthernetUdp.o
                                                  ./arduinolib/Ethernet/EthernetClient.o
pinMode                                           /storage/apps/eclipse-avr/workspace/ArduinoCore-1.0/Mega2560/libArduinoCore-1.0.a(wiring_digital.o)
                                                  /storage/apps/eclipse-avr/workspace/ArduinoCore-1.0/Mega2560/libArduinoCore-1.0.a(wiring_analog.o)
                                                  ./arduinolib/SPI/SPI.o
                                                  ./lib/OneWire.o
                                                  ./src/main.o
port_to_input_PGM                                 /storage/apps/eclipse-avr/workspace/ArduinoCore-1.0/Mega2560/libArduinoCore-1.0.a(wiring_digital.o)
                                                  ./lib/OneWire.o
port_to_mode_PGM                                  /storage/apps/eclipse-avr/workspace/ArduinoCore-1.0/Mega2560/libArduinoCore-1.0.a(wiring_digital.o)
port_to_output_PGM                                /storage/apps/eclipse-avr/workspace/ArduinoCore-1.0/Mega2560/libArduinoCore-1.0.a(wiring_digital.o)
random                                            /usr/lib/gcc/avr/4.5.3/../../../avr/lib/avr6/libc.a(random.o)
                                                  /storage/apps/eclipse-avr/workspace/ArduinoCore-1.0/Mega2560/libArduinoCore-1.0.a(WMath.o)
random(long)                                      /storage/apps/eclipse-avr/workspace/ArduinoCore-1.0/Mega2560/libArduinoCore-1.0.a(WMath.o)
random(long, long)                                /storage/apps/eclipse-avr/workspace/ArduinoCore-1.0/Mega2560/libArduinoCore-1.0.a(WMath.o)
                                                  ./arduinolib/Ethernet/Dhcp.o
randomSeed(unsigned int)                          /storage/apps/eclipse-avr/workspace/ArduinoCore-1.0/Mega2560/libArduinoCore-1.0.a(WMath.o)
random_r                                          /usr/lib/gcc/avr/4.5.3/../../../avr/lib/avr6/libc.a(random.o)
realloc                                           /usr/lib/gcc/avr/4.5.3/../../../avr/lib/avr6/libc.a(realloc.o)
                                                  /storage/apps/eclipse-avr/workspace/ArduinoCore-1.0/Mega2560/libArduinoCore-1.0.a(WString.o)
recv(unsigned char, unsigned char*, unsigned int) ./arduinolib/Ethernet/utility/socket.o
                                                  ./arduinolib/Ethernet/EthernetUdp.o
                                                  ./arduinolib/Ethernet/EthernetClient.o
recvfrom(unsigned char, unsigned char*, unsigned int, unsigned char*, unsigned int*) ./arduinolib/Ethernet/utility/socket.o
reply(int, String, String)                        ./src/main.o
roomTemp                                          ./src/main.o
rx_buffer                                         /storage/apps/eclipse-avr/workspace/ArduinoCore-1.0/Mega2560/libArduinoCore-1.0.a(HardwareSerial.o)
rx_buffer1                                        /storage/apps/eclipse-avr/workspace/ArduinoCore-1.0/Mega2560/libArduinoCore-1.0.a(HardwareSerial.o)
rx_buffer2                                        /storage/apps/eclipse-avr/workspace/ArduinoCore-1.0/Mega2560/libArduinoCore-1.0.a(HardwareSerial.o)
rx_buffer3                                        /storage/apps/eclipse-avr/workspace/ArduinoCore-1.0/Mega2560/libArduinoCore-1.0.a(HardwareSerial.o)
sdcardPin                                         ./src/main.o
send(unsigned char, unsigned char const*, unsigned int) ./arduinolib/Ethernet/utility/socket.o
                                                  ./arduinolib/Ethernet/EthernetClient.o
send404()                                         ./src/main.o
sendHtmlHeader()                                  ./src/main.o
sendNotification(String)                          ./src/main.o
sendUDP(unsigned char)                            ./arduinolib/Ethernet/utility/socket.o
                                                  ./arduinolib/Ethernet/EthernetUdp.o
sendto(unsigned char, unsigned char const*, unsigned int, unsigned char*, unsigned int) ./arduinolib/Ethernet/utility/socket.o
sensors                                           ./src/main.o
serialChar                                        ./src/main.o
serialEvent()                                     /storage/apps/eclipse-avr/workspace/ArduinoCore-1.0/Mega2560/libArduinoCore-1.0.a(HardwareSerial.o)
serialEvent1()                                    /storage/apps/eclipse-avr/workspace/ArduinoCore-1.0/Mega2560/libArduinoCore-1.0.a(HardwareSerial.o)
serialEvent2()                                    /storage/apps/eclipse-avr/workspace/ArduinoCore-1.0/Mega2560/libArduinoCore-1.0.a(HardwareSerial.o)
serialEvent3()                                    /storage/apps/eclipse-avr/workspace/ArduinoCore-1.0/Mega2560/libArduinoCore-1.0.a(HardwareSerial.o)
serialEventRun()                                  /storage/apps/eclipse-avr/workspace/ArduinoCore-1.0/Mega2560/libArduinoCore-1.0.a(HardwareSerial.o)
setup                                             ./src/main.o
smtpClient                                        ./src/main.o
socket(unsigned char, unsigned char, unsigned int, unsigned char) ./arduinolib/Ethernet/utility/socket.o
                                                  ./arduinolib/Ethernet/EthernetUdp.o
                                                  ./arduinolib/Ethernet/EthernetServer.o
                                                  ./arduinolib/Ethernet/EthernetClient.o
sprintf                                           /usr/lib/gcc/avr/4.5.3/../../../avr/lib/avr6/libc.a(sprintf.o)
                                                  ./src/main.o
srandom                                           /usr/lib/gcc/avr/4.5.3/../../../avr/lib/avr6/libc.a(random.o)
                                                  /storage/apps/eclipse-avr/workspace/ArduinoCore-1.0/Mega2560/libArduinoCore-1.0.a(WMath.o)
startUDP(unsigned char, unsigned char*, unsigned int) ./arduinolib/Ethernet/utility/socket.o
                                                  ./arduinolib/Ethernet/EthernetUdp.o
store_char(unsigned char, ring_buffer*)           /storage/apps/eclipse-avr/workspace/ArduinoCore-1.0/Mega2560/libArduinoCore-1.0.a(HardwareSerial.o)
strchr                                            /usr/lib/gcc/avr/4.5.3/../../../avr/lib/avr6/libc.a(strchr.o)
                                                  /storage/apps/eclipse-avr/workspace/ArduinoCore-1.0/Mega2560/libArduinoCore-1.0.a(WString.o)
strcmp                                            /usr/lib/gcc/avr/4.5.3/../../../avr/lib/avr6/libc.a(strcmp.o)
                                                  /storage/apps/eclipse-avr/workspace/ArduinoCore-1.0/Mega2560/libArduinoCore-1.0.a(WString.o)
strcpy                                            /usr/lib/gcc/avr/4.5.3/../../../avr/lib/avr6/libc.a(strcpy.o)
                                                  /storage/apps/eclipse-avr/workspace/ArduinoCore-1.0/Mega2560/libArduinoCore-1.0.a(WString.o)
strncasecmp_P                                     /usr/lib/gcc/avr/4.5.3/../../../avr/lib/avr6/libc.a(strncasecmp_P.o)
                                                  /usr/lib/gcc/avr/4.5.3/../../../avr/lib/avr6/libc.a(strtod.o)
strncmp                                           /usr/lib/gcc/avr/4.5.3/../../../avr/lib/avr6/libc.a(strncmp.o)
                                                  /storage/apps/eclipse-avr/workspace/ArduinoCore-1.0/Mega2560/libArduinoCore-1.0.a(WString.o)
                                                  ./src/main.o
strncpy                                           /usr/lib/gcc/avr/4.5.3/../../../avr/lib/avr6/libc.a(strncpy.o)
                                                  /storage/apps/eclipse-avr/workspace/ArduinoCore-1.0/Mega2560/libArduinoCore-1.0.a(WString.o)
strnlen                                           /usr/lib/gcc/avr/4.5.3/../../../avr/lib/avr6/libc.a(strnlen.o)
                                                  /usr/lib/gcc/avr/4.5.3/../../../avr/lib/avr6/libc.a(vfprintf_std.o)
strnlen_P                                         /usr/lib/gcc/avr/4.5.3/../../../avr/lib/avr6/libc.a(strnlen_P.o)
                                                  /usr/lib/gcc/avr/4.5.3/../../../avr/lib/avr6/libc.a(vfprintf_std.o)
strrchr                                           /usr/lib/gcc/avr/4.5.3/../../../avr/lib/avr6/libc.a(strrchr.o)
                                                  /storage/apps/eclipse-avr/workspace/ArduinoCore-1.0/Mega2560/libArduinoCore-1.0.a(WString.o)
strrev                                            /usr/lib/gcc/avr/4.5.3/../../../avr/lib/avr6/libc.a(strrev.o)
                                                  /usr/lib/gcc/avr/4.5.3/../../../avr/lib/avr6/libc.a(utoa.o)
                                                  /usr/lib/gcc/avr/4.5.3/../../../avr/lib/avr6/libc.a(ultoa.o)
                                                  /usr/lib/gcc/avr/4.5.3/../../../avr/lib/avr6/libc.a(ltoa.o)
                                                  /usr/lib/gcc/avr/4.5.3/../../../avr/lib/avr6/libc.a(itoa.o)
strstr                                            /usr/lib/gcc/avr/4.5.3/../../../avr/lib/avr6/libc.a(strstr.o)
                                                  /storage/apps/eclipse-avr/workspace/ArduinoCore-1.0/Mega2560/libArduinoCore-1.0.a(WString.o)
strtod                                            /usr/lib/gcc/avr/4.5.3/../../../avr/lib/avr6/libc.a(strtod.o)
                                                  /usr/lib/gcc/avr/4.5.3/../../../avr/lib/avr6/libc.a(atof.o)
strtok                                            /usr/lib/gcc/avr/4.5.3/../../../avr/lib/avr6/libc.a(strtok.o)
                                                  ./src/main.o
strtok_r                                          /usr/lib/gcc/avr/4.5.3/../../../avr/lib/avr6/libc.a(strtok_r.o)
                                                  /usr/lib/gcc/avr/4.5.3/../../../avr/lib/avr6/libc.a(strtok.o)
surfaceTemp                                       ./src/main.o
timeString                                        ./src/main.o
timer0_millis                                     /storage/apps/eclipse-avr/workspace/ArduinoCore-1.0/Mega2560/libArduinoCore-1.0.a(wiring.o)
timer0_overflow_count                             /storage/apps/eclipse-avr/workspace/ArduinoCore-1.0/Mega2560/libArduinoCore-1.0.a(wiring.o)
tolower                                           /usr/lib/gcc/avr/4.5.3/../../../avr/lib/avr6/libc.a(tolower.o)
                                                  /storage/apps/eclipse-avr/workspace/ArduinoCore-1.0/Mega2560/libArduinoCore-1.0.a(WString.o)
toupper                                           /usr/lib/gcc/avr/4.5.3/../../../avr/lib/avr6/libc.a(toupper.o)
                                                  /storage/apps/eclipse-avr/workspace/ArduinoCore-1.0/Mega2560/libArduinoCore-1.0.a(WString.o)
twi_attachSlaveRxEvent(void (*)(unsigned char*, int)) ./arduinolib/Wire/utility/twi.o
                                                  ./arduinolib/Wire/Wire.o
twi_attachSlaveTxEvent(void (*)())                ./arduinolib/Wire/utility/twi.o
                                                  ./arduinolib/Wire/Wire.o
twi_init()                                        ./arduinolib/Wire/utility/twi.o
                                                  ./arduinolib/Wire/Wire.o
twi_readFrom(unsigned char, unsigned char*, unsigned char, unsigned char) ./arduinolib/Wire/utility/twi.o
                                                  ./arduinolib/Wire/Wire.o
twi_releaseBus()                                  ./arduinolib/Wire/utility/twi.o
twi_reply(unsigned char)                          ./arduinolib/Wire/utility/twi.o
twi_setAddress(unsigned char)                     ./arduinolib/Wire/utility/twi.o
                                                  ./arduinolib/Wire/Wire.o
twi_stop()                                        ./arduinolib/Wire/utility/twi.o
twi_transmit(unsigned char const*, unsigned char) ./arduinolib/Wire/utility/twi.o
                                                  ./arduinolib/Wire/Wire.o
twi_writeTo(unsigned char, unsigned char*, unsigned char, unsigned char, unsigned char) ./arduinolib/Wire/utility/twi.o
                                                  ./arduinolib/Wire/Wire.o
tx_buffer                                         /storage/apps/eclipse-avr/workspace/ArduinoCore-1.0/Mega2560/libArduinoCore-1.0.a(HardwareSerial.o)
tx_buffer1                                        /storage/apps/eclipse-avr/workspace/ArduinoCore-1.0/Mega2560/libArduinoCore-1.0.a(HardwareSerial.o)
tx_buffer2                                        /storage/apps/eclipse-avr/workspace/ArduinoCore-1.0/Mega2560/libArduinoCore-1.0.a(HardwareSerial.o)
tx_buffer3                                        /storage/apps/eclipse-avr/workspace/ArduinoCore-1.0/Mega2560/libArduinoCore-1.0.a(HardwareSerial.o)
ultoa                                             /usr/lib/gcc/avr/4.5.3/../../../avr/lib/avr6/libc.a(ultoa.o)
                                                  /storage/apps/eclipse-avr/workspace/ArduinoCore-1.0/Mega2560/libArduinoCore-1.0.a(WString.o)
utoa                                              /usr/lib/gcc/avr/4.5.3/../../../avr/lib/avr6/libc.a(utoa.o)
                                                  /storage/apps/eclipse-avr/workspace/ArduinoCore-1.0/Mega2560/libArduinoCore-1.0.a(WString.o)
vfprintf                                          /usr/lib/gcc/avr/4.5.3/../../../avr/lib/avr6/libc.a(vfprintf_std.o)
                                                  /usr/lib/gcc/avr/4.5.3/../../../avr/lib/avr6/libc.a(sprintf.o)
vtable for Client                                 ./arduinolib/Ethernet/EthernetClient.o
vtable for EthernetClient                         ./arduinolib/Ethernet/EthernetClient.o
                                                  ./arduinolib/Ethernet/EthernetServer.o
                                                  ./src/main.o
vtable for EthernetServer                         ./arduinolib/Ethernet/EthernetServer.o
vtable for EthernetUDP                            ./arduinolib/Ethernet/EthernetUdp.o
vtable for HardwareSerial                         /storage/apps/eclipse-avr/workspace/ArduinoCore-1.0/Mega2560/libArduinoCore-1.0.a(HardwareSerial.o)
vtable for IPAddress                              /storage/apps/eclipse-avr/workspace/ArduinoCore-1.0/Mega2560/libArduinoCore-1.0.a(IPAddress.o)
                                                  ./arduinolib/Ethernet/EthernetUdp.o
                                                  ./arduinolib/Ethernet/EthernetClient.o
                                                  ./arduinolib/Ethernet/Ethernet.o
                                                  ./arduinolib/Ethernet/Dns.o
                                                  ./arduinolib/Ethernet/Dhcp.o
vtable for Print                                  /storage/apps/eclipse-avr/workspace/ArduinoCore-1.0/Mega2560/libArduinoCore-1.0.a(Print.o)
                                                  ./arduinolib/Ethernet/EthernetUdp.o
                                                  ./arduinolib/Ethernet/EthernetServer.o
                                                  ./arduinolib/Ethernet/EthernetClient.o
                                                  ./arduinolib/Wire/Wire.o
vtable for Printable                              ./arduinolib/Ethernet/Dhcp.o
vtable for Server                                 ./arduinolib/Ethernet/EthernetServer.o
vtable for Stream                                 ./arduinolib/Wire/Wire.o
vtable for TwoWire                                ./arduinolib/Wire/Wire.o
vtable for UDP                                    ./arduinolib/Ethernet/EthernetUdp.o
yesterday                                         ./src/main.o
